00000100  50                push ax
00000101  1E                push ds
00000102  0E                push cs
00000103  1F                pop ds
00000104  FA                cli
00000105  8C16C953          mov [0x53c9],ss
00000109  8926CB53          mov [0x53cb],sp
0000010D  B8FD55            mov ax,0x55fd
00000110  8BE0              mov sp,ax
00000112  8CC8              mov ax,cs
00000114  8ED0              mov ss,ax
00000116  06                push es
00000117  53                push bx
00000118  51                push cx
00000119  52                push dx
0000011A  56                push si
0000011B  57                push di
0000011C  55                push bp
0000011D  33C0              xor ax,ax
0000011F  8EC0              mov es,ax
00000121  26A17000          mov ax,[es:0x70]
00000125  A3E54F            mov [0x4fe5],ax
00000128  26A17200          mov ax,[es:0x72]
0000012C  A3E74F            mov [0x4fe7],ax
0000012F  B8F148            mov ax,0x48f1
00000132  26A37000          mov [es:0x70],ax
00000136  268C0E7200        mov [es:0x72],cs
0000013B  B40F              mov ah,0xf
0000013D  CD10              int 0x10
0000013F  883EE94F          mov [0x4fe9],bh
00000143  E8EF45            call 0x4735
00000146  890EEA4F          mov [0x4fea],cx
0000014A  B90020            mov cx,0x2000
0000014D  B401              mov ah,0x1
0000014F  CD10              int 0x10
00000151  E8EA45            call 0x473e
00000154  33D2              xor dx,dx
00000156  E8F245            call 0x474b
00000159  BF9F49            mov di,0x499f
0000015C  E8F545            call 0x4754
0000015F  BFF549            mov di,0x49f5
00000162  E8EF45            call 0x4754
00000165  BF474A            mov di,0x4a47
00000168  E8E945            call 0x4754
0000016B  BFF549            mov di,0x49f5
0000016E  E8E345            call 0x4754
00000171  BA0015            mov dx,0x1500
00000174  E8D445            call 0x474b
00000177  BFF549            mov di,0x49f5
0000017A  E8D745            call 0x4754
0000017D  BF994A            mov di,0x4a99
00000180  E83E46            call 0x47c1
00000183  BFF549            mov di,0x49f5
00000186  E8CB45            call 0x4754
00000189  FB                sti
0000018A  BA0005            mov dx,0x500
0000018D  E8BB45            call 0x474b
00000190  BF214B            mov di,0x4b21
00000193  E8BE45            call 0x4754
00000196  BF634B            mov di,0x4b63
00000199  E8B845            call 0x4754
0000019C  BF8B4B            mov di,0x4b8b
0000019F  E8B245            call 0x4754
000001A2  B84000            mov ax,0x40
000001A5  8EC0              mov es,ax
000001A7  26A11300          mov ax,[es:0x13]
000001AB  A3ED4F            mov [0x4fed],ax
000001AE  B364              mov bl,0x64
000001B0  F6F3              div bl
000001B2  0430              add al,0x30
000001B4  A2D84B            mov [0x4bd8],al
000001B7  8AC4              mov al,ah
000001B9  32E4              xor ah,ah
000001BB  B30A              mov bl,0xa
000001BD  F6F3              div bl
000001BF  053030            add ax,0x3030
000001C2  A3D94B            mov [0x4bd9],ax
000001C5  BFBC4B            mov di,0x4bbc
000001C8  E88945            call 0x4754
000001CB  26A11000          mov ax,[es:0x10]
000001CF  50                push ax
000001D0  253000            and ax,0x30
000001D3  3D3000            cmp ax,0x30
000001D6  7403              jz 0x1db
000001D8  EB0F              jmp short 0x1e9
000001DA  90                nop
000001DB  BFF34B            mov di,0x4bf3
000001DE  E87345            call 0x4754
000001E1  C606EF4FFF        mov byte [0x4fef],0xff
000001E6  EB0C              jmp short 0x1f4
000001E8  90                nop
000001E9  BF334C            mov di,0x4c33
000001EC  E86545            call 0x4754
000001EF  C606EF4F00        mov byte [0x4fef],0x0
000001F4  58                pop ax
000001F5  50                push ax
000001F6  24C0              and al,0xc0
000001F8  B106              mov cl,0x6
000001FA  D2E8              shr al,cl
000001FC  FEC0              inc al
000001FE  A2F04F            mov [0x4ff0],al
00000201  0430              add al,0x30
00000203  A28A4C            mov [0x4c8a],al
00000206  BF6E4C            mov di,0x4c6e
00000209  E84845            call 0x4754
0000020C  26A07500          mov al,[es:0x75]
00000210  3C00              cmp al,0x0
00000212  740E              jz 0x222
00000214  A2F14F            mov [0x4ff1],al
00000217  0430              add al,0x30
00000219  A2BE4C            mov [0x4cbe],al
0000021C  BFA24C            mov di,0x4ca2
0000021F  E83245            call 0x4754
00000222  58                pop ax
00000223  50                push ax
00000224  D0EC              shr ah,1
00000226  80E407            and ah,0x7
00000229  8826F34F          mov [0x4ff3],ah
0000022D  80C430            add ah,0x30
00000230  8826284D          mov [0x4d28],ah
00000234  BF0C4D            mov di,0x4d0c
00000237  E81A45            call 0x4754
0000023A  58                pop ax
0000023B  B106              mov cl,0x6
0000023D  D2EC              shr ah,cl
0000023F  80E403            and ah,0x3
00000242  8826F24F          mov [0x4ff2],ah
00000246  80C430            add ah,0x30
00000249  8826F04C          mov [0x4cf0],ah
0000024D  BFD44C            mov di,0x4cd4
00000250  E80145            call 0x4754
00000253  E461              in al,0x61
00000255  24F7              and al,0xf7
00000257  E661              out 0x61,al
00000259  E462              in al,0x62
0000025B  A802              test al,0x2
0000025D  7406              jz 0x265
0000025F  BF494D            mov di,0x4d49
00000262  E8EF44            call 0x4754
00000265  0E                push cs
00000266  07                pop es
00000267  E87245            call 0x47dc
0000026A  80FC4E            cmp ah,0x4e
0000026D  7413              jz 0x282
0000026F  80FC01            cmp ah,0x1
00000272  7503              jnz 0x277
00000274  E99300            jmp 0x30a
00000277  BE4852            mov si,0x5248
0000027A  E87845            call 0x47f5
0000027D  E89545            call 0x4815
00000280  EBE3              jmp short 0x265
00000282  BE7052            mov si,0x5270
00000285  E86D45            call 0x47f5
00000288  E8B645            call 0x4841
0000028B  BA0005            mov dx,0x500
0000028E  E8BA44            call 0x474b
00000291  BF864D            mov di,0x4d86
00000294  E8BD44            call 0x4754
00000297  BF1A4F            mov di,0x4f1a
0000029A  E82445            call 0x47c1
0000029D  E83C45            call 0x47dc
000002A0  80FC3B            cmp ah,0x3b
000002A3  721F              jc 0x2c4
000002A5  80FC44            cmp ah,0x44
000002A8  771A              ja 0x2c4
000002AA  8ADC              mov bl,ah
000002AC  32FF              xor bh,bh
000002AE  83EB3B            sub bx,byte +0x3b
000002B1  D1E3              shl bx,1
000002B3  BFF44F            mov di,0x4ff4
000002B6  03FB              add di,bx
000002B8  57                push di
000002B9  BE7052            mov si,0x5270
000002BC  E83645            call 0x47f5
000002BF  5F                pop di
000002C0  FF15              call [di]
000002C2  EBC4              jmp short 0x288
000002C4  80FC01            cmp ah,0x1
000002C7  740B              jz 0x2d4
000002C9  BE954F            mov si,0x4f95
000002CC  E82645            call 0x47f5
000002CF  E84345            call 0x4815
000002D2  EBC9              jmp short 0x29d
000002D4  FA                cli
000002D5  33C0              xor ax,ax
000002D7  8EC0              mov es,ax
000002D9  A1E54F            mov ax,[0x4fe5]
000002DC  26A37000          mov [es:0x70],ax
000002E0  A1E74F            mov ax,[0x4fe7]
000002E3  26A37200          mov [es:0x72],ax
000002E7  E85444            call 0x473e
000002EA  33D2              xor dx,dx
000002EC  E85C44            call 0x474b
000002EF  B401              mov ah,0x1
000002F1  8B0EEA4F          mov cx,[0x4fea]
000002F5  CD10              int 0x10
000002F7  5D                pop bp
000002F8  5F                pop di
000002F9  5E                pop si
000002FA  5A                pop dx
000002FB  59                pop cx
000002FC  5B                pop bx
000002FD  07                pop es
000002FE  8B26CB53          mov sp,[0x53cb]
00000302  8E16C953          mov ss,[0x53c9]
00000306  1F                pop ds
00000307  58                pop ax
00000308  CD20              int 0x20
0000030A  06                push es
0000030B  E83345            call 0x4841
0000030E  BF9852            mov di,0x5298
00000311  E8AD44            call 0x47c1
00000314  E83845            call 0x484f
00000317  C606095002        mov byte [0x5009],0x2
0000031C  C606085000        mov byte [0x5008],0x0
00000321  BFB803            mov di,0x3b8
00000324  E82D44            call 0x4754
00000327  E82C45            call 0x4856
0000032A  E83045            call 0x485d
0000032D  E84945            call 0x4879
00000330  803E0A5000        cmp byte [0x500a],0x0
00000335  7409              jz 0x340
00000337  FE0E0A50          dec byte [0x500a]
0000033B  7441              jz 0x37e
0000033D  07                pop es
0000033E  EB94              jmp short 0x2d4
00000340  E8FE44            call 0x4841
00000343  BF9852            mov di,0x5298
00000346  E87844            call 0x47c1
00000349  E80345            call 0x484f
0000034C  C606095009        mov byte [0x5009],0x9
00000351  C606085000        mov byte [0x5008],0x0
00000356  BFB204            mov di,0x4b2
00000359  E8F843            call 0x4754
0000035C  E8F744            call 0x4856
0000035F  E8FB44            call 0x485d
00000362  E81445            call 0x4879
00000365  A00A50            mov al,[0x500a]
00000368  FEC0              inc al
0000036A  B340              mov bl,0x40
0000036C  F6E3              mul bl
0000036E  BB4000            mov bx,0x40
00000371  8EC3              mov es,bx
00000373  26A31300          mov [es:0x13],ax
00000377  E8C744            call 0x4841
0000037A  07                pop es
0000037B  E90CFE            jmp 0x18a
0000037E  E8C044            call 0x4841
00000381  BF9852            mov di,0x5298
00000384  E83A44            call 0x47c1
00000387  E8C544            call 0x484f
0000038A  C606095001        mov byte [0x5009],0x1
0000038F  C606085000        mov byte [0x5008],0x0
00000394  BFD406            mov di,0x6d4
00000397  E8BA43            call 0x4754
0000039A  E8B944            call 0x4856
0000039D  E8BD44            call 0x485d
000003A0  E8D644            call 0x4879
000003A3  A00A50            mov al,[0x500a]
000003A6  FEC0              inc al
000003A8  BB4000            mov bx,0x40
000003AB  8EC3              mov es,bx
000003AD  26A27500          mov [es:0x75],al
000003B1  E88D44            call 0x4841
000003B4  07                pop es
000003B5  E9D2FD            jmp 0x18a
000003B8  07                pop es
000003B9  2020              and [bx+si],ah
000003BB  2020              and [bx+si],ah
000003BD  2020              and [bx+si],ah
000003BF  2020              and [bx+si],ah
000003C1  2020              and [bx+si],ah
000003C3  2020              and [bx+si],ah
000003C5  2020              and [bx+si],ah
000003C7  2020              and [bx+si],ah
000003C9  2020              and [bx+si],ah
000003CB  2020              and [bx+si],ah
000003CD  2020              and [bx+si],ah
000003CF  2020              and [bx+si],ah
000003D1  205748            and [bx+0x48],dl
000003D4  49                dec cx
000003D5  43                inc bx
000003D6  48                dec ax
000003D7  204551            and [di+0x51],al
000003DA  55                push bp
000003DB  49                dec cx
000003DC  50                push ax
000003DD  4D                dec bp
000003DE  45                inc bp
000003DF  4E                dec si
000003E0  54                push sp
000003E1  204953            and [bx+di+0x53],cl
000003E4  20494E            and [bx+di+0x4e],cl
000003E7  43                inc bx
000003E8  4F                dec di
000003E9  52                push dx
000003EA  52                push dx
000003EB  45                inc bp
000003EC  43                inc bx
000003ED  54                push sp
000003EE  203F              and [bx],bh
000003F0  0D0D20            or ax,0x200d
000003F3  2020              and [bx+si],ah
000003F5  2020              and [bx+si],ah
000003F7  2020              and [bx+si],ah
000003F9  2020              and [bx+si],ah
000003FB  2020              and [bx+si],ah
000003FD  2020              and [bx+si],ah
000003FF  2020              and [bx+si],ah
00000401  2020              and [bx+si],ah
00000403  2020              and [bx+si],ah
00000405  2020              and [bx+si],ah
00000407  2020              and [bx+si],ah
00000409  2020              and [bx+si],ah
0000040B  2020              and [bx+si],ah
0000040D  2020              and [bx+si],ah
0000040F  2020              and [bx+si],ah
00000411  2020              and [bx+si],ah
00000413  2020              and [bx+si],ah
00000415  312D              xor [di],bp
00000417  2D2D2D            sub ax,0x2d2d
0000041A  2D2D41            sub ax,0x412d
0000041D  4D                dec bp
0000041E  4F                dec di
0000041F  55                push bp
00000420  4E                dec si
00000421  54                push sp
00000422  204F46            and [bx+0x46],cl
00000425  205359            and [bp+di+0x59],dl
00000428  53                push bx
00000429  54                push sp
0000042A  45                inc bp
0000042B  4D                dec bp
0000042C  204D45            and [di+0x45],cl
0000042F  4D                dec bp
00000430  4F                dec di
00000431  52                push dx
00000432  59                pop cx
00000433  0D2020            or ax,0x2020
00000436  2020              and [bx+si],ah
00000438  2020              and [bx+si],ah
0000043A  2020              and [bx+si],ah
0000043C  2020              and [bx+si],ah
0000043E  2020              and [bx+si],ah
00000440  2020              and [bx+si],ah
00000442  2020              and [bx+si],ah
00000444  2020              and [bx+si],ah
00000446  2020              and [bx+si],ah
00000448  2020              and [bx+si],ah
0000044A  2020              and [bx+si],ah
0000044C  2020              and [bx+si],ah
0000044E  2020              and [bx+si],ah
00000450  2020              and [bx+si],ah
00000452  2020              and [bx+si],ah
00000454  2020              and [bx+si],ah
00000456  2032              and [bp+si],dh
00000458  2D2D2D            sub ax,0x2d2d
0000045B  2D2D2D            sub ax,0x2d2d
0000045E  2023              and [bp+di],ah
00000460  204F46            and [bx+0x46],cl
00000463  204649            and [bp+0x49],al
00000466  58                pop ax
00000467  45                inc bp
00000468  44                inc sp
00000469  204449            and [si+0x49],al
0000046C  53                push bx
0000046D  4B                dec bx
0000046E  204452            and [si+0x52],al
00000471  49                dec cx
00000472  56                push si
00000473  45                inc bp
00000474  53                push bx
00000475  0D2020            or ax,0x2020
00000478  2020              and [bx+si],ah
0000047A  2020              and [bx+si],ah
0000047C  2020              and [bx+si],ah
0000047E  2020              and [bx+si],ah
00000480  2020              and [bx+si],ah
00000482  2020              and [bx+si],ah
00000484  2020              and [bx+si],ah
00000486  2020              and [bx+si],ah
00000488  2020              and [bx+si],ah
0000048A  2020              and [bx+si],ah
0000048C  2020              and [bx+si],ah
0000048E  2020              and [bx+si],ah
00000490  2020              and [bx+si],ah
00000492  2020              and [bx+si],ah
00000494  2020              and [bx+si],ah
00000496  2020              and [bx+si],ah
00000498  2033              and [bp+di],dh
0000049A  2D2D2D            sub ax,0x2d2d
0000049D  2D2D2D            sub ax,0x2d2d
000004A0  4E                dec si
000004A1  4F                dec di
000004A2  4E                dec si
000004A3  45                inc bp
000004A4  2C20              sub al,0x20
000004A6  45                inc bp
000004A7  58                pop ax
000004A8  49                dec cx
000004A9  54                push sp
000004AA  20544F            and [si+0x4f],dl
000004AD  20444F            and [si+0x4f],al
000004B0  53                push bx
000004B1  0007              add [bx],al
000004B3  2020              and [bx+si],ah
000004B5  2020              and [bx+si],ah
000004B7  2020              and [bx+si],ah
000004B9  2020              and [bx+si],ah
000004BB  2020              and [bx+si],ah
000004BD  2020              and [bx+si],ah
000004BF  2020              and [bx+si],ah
000004C1  2020              and [bx+si],ah
000004C3  2020              and [bx+si],ah
000004C5  48                dec ax
000004C6  4F                dec di
000004C7  57                push di
000004C8  204D55            and [di+0x55],cl
000004CB  43                inc bx
000004CC  48                dec ax
000004CD  204D45            and [di+0x45],cl
000004D0  4D                dec bp
000004D1  4F                dec di
000004D2  52                push dx
000004D3  59                pop cx
000004D4  20444F            and [si+0x4f],al
000004D7  20594F            and [bx+di+0x4f],bl
000004DA  55                push bp
000004DB  204841            and [bx+si+0x41],cl
000004DE  56                push si
000004DF  45                inc bp
000004E0  20494E            and [bx+di+0x4e],cl
000004E3  20594F            and [bx+di+0x4f],bl
000004E6  55                push bp
000004E7  52                push dx
000004E8  205359            and [bp+di+0x59],dl
000004EB  53                push bx
000004EC  54                push sp
000004ED  45                inc bp
000004EE  4D                dec bp
000004EF  203F              and [bx],bh
000004F1  0D0D20            or ax,0x200d
000004F4  2020              and [bx+si],ah
000004F6  2020              and [bx+si],ah
000004F8  2020              and [bx+si],ah
000004FA  2020              and [bx+si],ah
000004FC  2020              and [bx+si],ah
000004FE  2020              and [bx+si],ah
00000500  2020              and [bx+si],ah
00000502  2020              and [bx+si],ah
00000504  2020              and [bx+si],ah
00000506  2020              and [bx+si],ah
00000508  2020              and [bx+si],ah
0000050A  2020              and [bx+si],ah
0000050C  2020              and [bx+si],ah
0000050E  2020              and [bx+si],ah
00000510  2020              and [bx+si],ah
00000512  2020              and [bx+si],ah
00000514  2020              and [bx+si],ah
00000516  312D              xor [di],bp
00000518  2D2D2D            sub ax,0x2d2d
0000051B  2D2D20            sub ax,0x202d
0000051E  363420            ss xor al,0x20
00000521  4B                dec bx
00000522  0D2020            or ax,0x2020
00000525  2020              and [bx+si],ah
00000527  2020              and [bx+si],ah
00000529  2020              and [bx+si],ah
0000052B  2020              and [bx+si],ah
0000052D  2020              and [bx+si],ah
0000052F  2020              and [bx+si],ah
00000531  2020              and [bx+si],ah
00000533  2020              and [bx+si],ah
00000535  2020              and [bx+si],ah
00000537  2020              and [bx+si],ah
00000539  2020              and [bx+si],ah
0000053B  2020              and [bx+si],ah
0000053D  2020              and [bx+si],ah
0000053F  2020              and [bx+si],ah
00000541  2020              and [bx+si],ah
00000543  2020              and [bx+si],ah
00000545  2032              and [bp+si],dh
00000547  2D2D2D            sub ax,0x2d2d
0000054A  2D2D2D            sub ax,0x2d2d
0000054D  3132              xor [bp+si],si
0000054F  3820              cmp [bx+si],ah
00000551  4B                dec bx
00000552  0D2020            or ax,0x2020
00000555  2020              and [bx+si],ah
00000557  2020              and [bx+si],ah
00000559  2020              and [bx+si],ah
0000055B  2020              and [bx+si],ah
0000055D  2020              and [bx+si],ah
0000055F  2020              and [bx+si],ah
00000561  2020              and [bx+si],ah
00000563  2020              and [bx+si],ah
00000565  2020              and [bx+si],ah
00000567  2020              and [bx+si],ah
00000569  2020              and [bx+si],ah
0000056B  2020              and [bx+si],ah
0000056D  2020              and [bx+si],ah
0000056F  2020              and [bx+si],ah
00000571  2020              and [bx+si],ah
00000573  2020              and [bx+si],ah
00000575  2033              and [bp+di],dh
00000577  2D2D2D            sub ax,0x2d2d
0000057A  2D2D2D            sub ax,0x2d2d
0000057D  3139              xor [bx+di],di
0000057F  3220              xor ah,[bx+si]
00000581  4B                dec bx
00000582  0D2020            or ax,0x2020
00000585  2020              and [bx+si],ah
00000587  2020              and [bx+si],ah
00000589  2020              and [bx+si],ah
0000058B  2020              and [bx+si],ah
0000058D  2020              and [bx+si],ah
0000058F  2020              and [bx+si],ah
00000591  2020              and [bx+si],ah
00000593  2020              and [bx+si],ah
00000595  2020              and [bx+si],ah
00000597  2020              and [bx+si],ah
00000599  2020              and [bx+si],ah
0000059B  2020              and [bx+si],ah
0000059D  2020              and [bx+si],ah
0000059F  2020              and [bx+si],ah
000005A1  2020              and [bx+si],ah
000005A3  2020              and [bx+si],ah
000005A5  2034              and [si],dh
000005A7  2D2D2D            sub ax,0x2d2d
000005AA  2D2D2D            sub ax,0x2d2d
000005AD  3235              xor dh,[di]
000005AF  36204B0D          and [ss:bp+di+0xd],cl
000005B3  2020              and [bx+si],ah
000005B5  2020              and [bx+si],ah
000005B7  2020              and [bx+si],ah
000005B9  2020              and [bx+si],ah
000005BB  2020              and [bx+si],ah
000005BD  2020              and [bx+si],ah
000005BF  2020              and [bx+si],ah
000005C1  2020              and [bx+si],ah
000005C3  2020              and [bx+si],ah
000005C5  2020              and [bx+si],ah
000005C7  2020              and [bx+si],ah
000005C9  2020              and [bx+si],ah
000005CB  2020              and [bx+si],ah
000005CD  2020              and [bx+si],ah
000005CF  2020              and [bx+si],ah
000005D1  2020              and [bx+si],ah
000005D3  2020              and [bx+si],ah
000005D5  2035              and [di],dh
000005D7  2D2D2D            sub ax,0x2d2d
000005DA  2D2D2D            sub ax,0x2d2d
000005DD  3332              xor si,[bp+si]
000005DF  3020              xor [bx+si],ah
000005E1  4B                dec bx
000005E2  0D2020            or ax,0x2020
000005E5  2020              and [bx+si],ah
000005E7  2020              and [bx+si],ah
000005E9  2020              and [bx+si],ah
000005EB  2020              and [bx+si],ah
000005ED  2020              and [bx+si],ah
000005EF  2020              and [bx+si],ah
000005F1  2020              and [bx+si],ah
000005F3  2020              and [bx+si],ah
000005F5  2020              and [bx+si],ah
000005F7  2020              and [bx+si],ah
000005F9  2020              and [bx+si],ah
000005FB  2020              and [bx+si],ah
000005FD  2020              and [bx+si],ah
000005FF  2020              and [bx+si],ah
00000601  2020              and [bx+si],ah
00000603  2020              and [bx+si],ah
00000605  20362D2D          and [0x2d2d],dh
00000609  2D2D2D            sub ax,0x2d2d
0000060C  2D3338            sub ax,0x3833
0000060F  3420              xor al,0x20
00000611  4B                dec bx
00000612  0D2020            or ax,0x2020
00000615  2020              and [bx+si],ah
00000617  2020              and [bx+si],ah
00000619  2020              and [bx+si],ah
0000061B  2020              and [bx+si],ah
0000061D  2020              and [bx+si],ah
0000061F  2020              and [bx+si],ah
00000621  2020              and [bx+si],ah
00000623  2020              and [bx+si],ah
00000625  2020              and [bx+si],ah
00000627  2020              and [bx+si],ah
00000629  2020              and [bx+si],ah
0000062B  2020              and [bx+si],ah
0000062D  2020              and [bx+si],ah
0000062F  2020              and [bx+si],ah
00000631  2020              and [bx+si],ah
00000633  2020              and [bx+si],ah
00000635  2037              and [bx],dh
00000637  2D2D2D            sub ax,0x2d2d
0000063A  2D2D2D            sub ax,0x2d2d
0000063D  3434              xor al,0x34
0000063F  3820              cmp [bx+si],ah
00000641  4B                dec bx
00000642  0D2020            or ax,0x2020
00000645  2020              and [bx+si],ah
00000647  2020              and [bx+si],ah
00000649  2020              and [bx+si],ah
0000064B  2020              and [bx+si],ah
0000064D  2020              and [bx+si],ah
0000064F  2020              and [bx+si],ah
00000651  2020              and [bx+si],ah
00000653  2020              and [bx+si],ah
00000655  2020              and [bx+si],ah
00000657  2020              and [bx+si],ah
00000659  2020              and [bx+si],ah
0000065B  2020              and [bx+si],ah
0000065D  2020              and [bx+si],ah
0000065F  2020              and [bx+si],ah
00000661  2020              and [bx+si],ah
00000663  2020              and [bx+si],ah
00000665  2038              and [bx+si],bh
00000667  2D2D2D            sub ax,0x2d2d
0000066A  2D2D2D            sub ax,0x2d2d
0000066D  353132            xor ax,0x3231
00000670  204B0D            and [bp+di+0xd],cl
00000673  2020              and [bx+si],ah
00000675  2020              and [bx+si],ah
00000677  2020              and [bx+si],ah
00000679  2020              and [bx+si],ah
0000067B  2020              and [bx+si],ah
0000067D  2020              and [bx+si],ah
0000067F  2020              and [bx+si],ah
00000681  2020              and [bx+si],ah
00000683  2020              and [bx+si],ah
00000685  2020              and [bx+si],ah
00000687  2020              and [bx+si],ah
00000689  2020              and [bx+si],ah
0000068B  2020              and [bx+si],ah
0000068D  2020              and [bx+si],ah
0000068F  2020              and [bx+si],ah
00000691  2020              and [bx+si],ah
00000693  2020              and [bx+si],ah
00000695  2039              and [bx+di],bh
00000697  2D2D2D            sub ax,0x2d2d
0000069A  2D2D2D            sub ax,0x2d2d
0000069D  353736            xor ax,0x3637
000006A0  204B0D            and [bp+di+0xd],cl
000006A3  2020              and [bx+si],ah
000006A5  2020              and [bx+si],ah
000006A7  2020              and [bx+si],ah
000006A9  2020              and [bx+si],ah
000006AB  2020              and [bx+si],ah
000006AD  2020              and [bx+si],ah
000006AF  2020              and [bx+si],ah
000006B1  2020              and [bx+si],ah
000006B3  2020              and [bx+si],ah
000006B5  2020              and [bx+si],ah
000006B7  2020              and [bx+si],ah
000006B9  2020              and [bx+si],ah
000006BB  2020              and [bx+si],ah
000006BD  2020              and [bx+si],ah
000006BF  2020              and [bx+si],ah
000006C1  2020              and [bx+si],ah
000006C3  2020              and [bx+si],ah
000006C5  2030              and [bx+si],dh
000006C7  2D2D2D            sub ax,0x2d2d
000006CA  2D2D2D            sub ax,0x2d2d
000006CD  363430            ss xor al,0x30
000006D0  204B0D            and [bp+di+0xd],cl
000006D3  0007              add [bx],al
000006D5  2020              and [bx+si],ah
000006D7  2020              and [bx+si],ah
000006D9  2020              and [bx+si],ah
000006DB  2020              and [bx+si],ah
000006DD  2020              and [bx+si],ah
000006DF  2020              and [bx+si],ah
000006E1  2020              and [bx+si],ah
000006E3  2020              and [bx+si],ah
000006E5  2020              and [bx+si],ah
000006E7  57                push di
000006E8  48                dec ax
000006E9  41                inc cx
000006EA  54                push sp
000006EB  204953            and [bx+di+0x53],cl
000006EE  205448            and [si+0x48],dl
000006F1  45                inc bp
000006F2  20434F            and [bp+di+0x4f],al
000006F5  52                push dx
000006F6  52                push dx
000006F7  45                inc bp
000006F8  43                inc bx
000006F9  54                push sp
000006FA  204649            and [bp+0x49],al
000006FD  58                pop ax
000006FE  45                inc bp
000006FF  44                inc sp
00000700  204449            and [si+0x49],al
00000703  53                push bx
00000704  4B                dec bx
00000705  204452            and [si+0x52],al
00000708  49                dec cx
00000709  56                push si
0000070A  45                inc bp
0000070B  20434F            and [bp+di+0x4f],al
0000070E  55                push bp
0000070F  4E                dec si
00000710  54                push sp
00000711  203F              and [bx],bh
00000713  0D0D20            or ax,0x200d
00000716  2020              and [bx+si],ah
00000718  2020              and [bx+si],ah
0000071A  2020              and [bx+si],ah
0000071C  2020              and [bx+si],ah
0000071E  2020              and [bx+si],ah
00000720  2020              and [bx+si],ah
00000722  2020              and [bx+si],ah
00000724  2020              and [bx+si],ah
00000726  2020              and [bx+si],ah
00000728  2020              and [bx+si],ah
0000072A  2020              and [bx+si],ah
0000072C  2020              and [bx+si],ah
0000072E  2020              and [bx+si],ah
00000730  2020              and [bx+si],ah
00000732  2020              and [bx+si],ah
00000734  2020              and [bx+si],ah
00000736  2020              and [bx+si],ah
00000738  312D              xor [di],bp
0000073A  2D2D2D            sub ax,0x2d2d
0000073D  2D2D31            sub ax,0x312d
00000740  204649            and [bp+0x49],al
00000743  58                pop ax
00000744  45                inc bp
00000745  44                inc sp
00000746  204449            and [si+0x49],al
00000749  53                push bx
0000074A  4B                dec bx
0000074B  204452            and [si+0x52],al
0000074E  49                dec cx
0000074F  56                push si
00000750  45                inc bp
00000751  0D2020            or ax,0x2020
00000754  2020              and [bx+si],ah
00000756  2020              and [bx+si],ah
00000758  2020              and [bx+si],ah
0000075A  2020              and [bx+si],ah
0000075C  2020              and [bx+si],ah
0000075E  2020              and [bx+si],ah
00000760  2020              and [bx+si],ah
00000762  2020              and [bx+si],ah
00000764  2020              and [bx+si],ah
00000766  2020              and [bx+si],ah
00000768  2020              and [bx+si],ah
0000076A  2020              and [bx+si],ah
0000076C  2020              and [bx+si],ah
0000076E  2020              and [bx+si],ah
00000770  2020              and [bx+si],ah
00000772  2020              and [bx+si],ah
00000774  2032              and [bp+si],dh
00000776  2D2D2D            sub ax,0x2d2d
00000779  2D2D2D            sub ax,0x2d2d
0000077C  3220              xor ah,[bx+si]
0000077E  46                inc si
0000077F  49                dec cx
00000780  58                pop ax
00000781  45                inc bp
00000782  44                inc sp
00000783  204449            and [si+0x49],al
00000786  53                push bx
00000787  4B                dec bx
00000788  204452            and [si+0x52],al
0000078B  49                dec cx
0000078C  56                push si
0000078D  45                inc bp
0000078E  53                push bx
0000078F  0D00E8            or ax,0xe800
00000792  AD                lodsw
00000793  40                inc ax
00000794  BA1D09            mov dx,0x91d
00000797  E8B13F            call 0x474b
0000079A  FA                cli
0000079B  BA1403            mov dx,0x314
0000079E  EC                in al,dx
0000079F  BA0F03            mov dx,0x30f
000007A2  B91000            mov cx,0x10
000007A5  BECC08            mov si,0x8cc
000007A8  EC                in al,dx
000007A9  2244F0            and al,[si-0x10]
000007AC  8804              mov [si],al
000007AE  4E                dec si
000007AF  4A                dec dx
000007B0  E2F6              loop 0x7a8
000007B2  BA1403            mov dx,0x314
000007B5  EC                in al,dx
000007B6  A801              test al,0x1
000007B8  75E5              jnz 0x79f
000007BA  BA0003            mov dx,0x300
000007BD  B91000            mov cx,0x10
000007C0  B000              mov al,0x0
000007C2  EE                out dx,al
000007C3  42                inc dx
000007C4  E2FC              loop 0x7c2
000007C6  BA1403            mov dx,0x314
000007C9  EC                in al,dx
000007CA  A801              test al,0x1
000007CC  75EC              jnz 0x7ba
000007CE  BF0003            mov di,0x300
000007D1  B90800            mov cx,0x8
000007D4  BEA508            mov si,0x8a5
000007D7  8A3C              mov bh,[si]
000007D9  B400              mov ah,0x0
000007DB  8AC7              mov al,bh
000007DD  B30A              mov bl,0xa
000007DF  F6F3              div bl
000007E1  D0E0              shl al,1
000007E3  D0E0              shl al,1
000007E5  D0E0              shl al,1
000007E7  D0E0              shl al,1
000007E9  02C4              add al,ah
000007EB  8AD8              mov bl,al
000007ED  225C08            and bl,[si+0x8]
000007F0  BA1403            mov dx,0x314
000007F3  EC                in al,dx
000007F4  8BD7              mov dx,di
000007F6  8AC3              mov al,bl
000007F8  EE                out dx,al
000007F9  EC                in al,dx
000007FA  50                push ax
000007FB  BA1403            mov dx,0x314
000007FE  EC                in al,dx
000007FF  A801              test al,0x1
00000801  58                pop ax
00000802  75F0              jnz 0x7f4
00000804  224408            and al,[si+0x8]
00000807  3AC3              cmp al,bl
00000809  751B              jnz 0x826
0000080B  80FF00            cmp bh,0x0
0000080E  7404              jz 0x814
00000810  FECF              dec bh
00000812  EBC5              jmp short 0x7d9
00000814  47                inc di
00000815  46                inc si
00000816  E2BF              loop 0x7d7
00000818  BA0F03            mov dx,0x30f
0000081B  B90200            mov cx,0x2
0000081E  B055              mov al,0x55
00000820  8AD8              mov bl,al
00000822  EE                out dx,al
00000823  EC                in al,dx
00000824  3AC3              cmp al,bl
00000826  BF8C08            mov di,0x88c
00000829  7524              jnz 0x84f
0000082B  B0AA              mov al,0xaa
0000082D  4A                dec dx
0000082E  E2F0              loop 0x820
00000830  B91000            mov cx,0x10
00000833  BEBD08            mov si,0x8bd
00000836  BA1403            mov dx,0x314
00000839  EC                in al,dx
0000083A  BA0003            mov dx,0x300
0000083D  8A04              mov al,[si]
0000083F  EE                out dx,al
00000840  46                inc si
00000841  42                inc dx
00000842  E2F9              loop 0x83d
00000844  BA1403            mov dx,0x314
00000847  EC                in al,dx
00000848  A801              test al,0x1
0000084A  75E4              jnz 0x830
0000084C  BF7308            mov di,0x873
0000084F  E8023F            call 0x4754
00000852  FB                sti
00000853  BF0C50            mov di,0x500c
00000856  E8683F            call 0x47c1
00000859  E8803F            call 0x47dc
0000085C  80FC4E            cmp ah,0x4e
0000085F  740B              jz 0x86c
00000861  BE4852            mov si,0x5248
00000864  E88E3F            call 0x47f5
00000867  E8AB3F            call 0x4815
0000086A  EBED              jmp short 0x859
0000086C  BE7052            mov si,0x5270
0000086F  E8833F            call 0x47f5
00000872  C3                ret
00000873  07                pop es
00000874  54                push sp
00000875  4F                dec di
00000876  44                inc sp
00000877  20436C            and [bp+di+0x6c],al
0000087A  6F                outsw
0000087B  636B20            arpl [bp+di+0x20],bp
0000087E  54                push sp
0000087F  657374            gs jnc 0x8f6
00000882  2024              and [si],ah
00000884  0A5041            or dl,[bx+si+0x41]
00000887  53                push bx
00000888  53                push bx
00000889  45                inc bp
0000088A  44                inc sp
0000088B  0007              add [bx],al
0000088D  54                push sp
0000088E  4F                dec di
0000088F  44                inc sp
00000890  20436C            and [bp+di+0x6c],al
00000893  6F                outsw
00000894  636B20            arpl [bp+di+0x20],bp
00000897  54                push sp
00000898  657374            gs jnc 0x90f
0000089B  2024              and [si],ah
0000089D  06                push es
0000089E  46                inc si
0000089F  41                inc cx
000008A0  49                dec cx
000008A1  4C                dec sp
000008A2  45                inc bp
000008A3  44                inc sp
000008A4  005A63            add [bp+si+0x63],bl
000008A7  3B3B              cmp di,[bp+di]
000008A9  17                pop ss
000008AA  07                pop es
000008AB  1F                pop ds
000008AC  0CF0              or al,0xf0
000008AE  FF                db 0xff
000008AF  7F7F              jg 0x930
000008B1  3F                aas
000008B2  07                pop es
000008B3  3F                aas
000008B4  1F                pop ds
000008B5  F0                lock
000008B6  FF                db 0xff
000008B7  FF                db 0xff
000008B8  FF                db 0xff
000008B9  FF0F              dec word [bx]
000008BB  FF                db 0xff
000008BC  FF00              inc word [bx+si]
000008BE  0000              add [bx+si],al
000008C0  0000              add [bx+si],al
000008C2  0000              add [bx+si],al
000008C4  0000              add [bx+si],al
000008C6  0000              add [bx+si],al
000008C8  0000              add [bx+si],al
000008CA  0000              add [bx+si],al
000008CC  0006FA33          add [0x33fa],al
000008D0  C08EC026A1        ror byte [bp+0x26c0],byte 0xa1
000008D5  1400              adc al,0x0
000008D7  50                push ax
000008D8  26A11600          mov ax,[es:0x16]
000008DC  50                push ax
000008DD  B8F048            mov ax,0x48f0
000008E0  26A31400          mov [es:0x14],ax
000008E4  268C0E1600        mov [es:0x16],cs
000008E9  FB                sti
000008EA  E8543F            call 0x4841
000008ED  BFE509            mov di,0x9e5
000008F0  E8CE3E            call 0x47c1
000008F3  B95300            mov cx,0x53
000008F6  BF640A            mov di,0xa64
000008F9  51                push cx
000008FA  8A35              mov dh,[di]
000008FC  8A5501            mov dl,[di+0x1]
000008FF  E8493E            call 0x474b
00000902  B8DB09            mov ax,0x9db
00000905  B90100            mov cx,0x1
00000908  B307              mov bl,0x7
0000090A  8A3EE94F          mov bh,[0x4fe9]
0000090E  CD10              int 0x10
00000910  83C703            add di,byte +0x3
00000913  59                pop cx
00000914  E2E3              loop 0x8f9
00000916  B84000            mov ax,0x40
00000919  06                push es
0000091A  8EC0              mov es,ax
0000091C  268A261700        mov ah,[es:0x17]
00000921  80CC20            or ah,0x20
00000924  2688261700        mov [es:0x17],ah
00000929  07                pop es
0000092A  B401              mov ah,0x1
0000092C  CD16              int 0x16
0000092E  755A              jnz 0x98a
00000930  B90038            mov cx,0x3800
00000933  E2FE              loop 0x933
00000935  B84000            mov ax,0x40
00000938  06                push es
00000939  8EC0              mov es,ax
0000093B  268A261700        mov ah,[es:0x17]
00000940  26A01800          mov al,[es:0x18]
00000944  07                pop es
00000945  F6C408            test ah,0x8
00000948  7405              jz 0x94f
0000094A  B438              mov ah,0x38
0000094C  EB51              jmp short 0x99f
0000094E  90                nop
0000094F  F6C404            test ah,0x4
00000952  7405              jz 0x959
00000954  B41D              mov ah,0x1d
00000956  EB47              jmp short 0x99f
00000958  90                nop
00000959  F6C402            test ah,0x2
0000095C  7405              jz 0x963
0000095E  B42A              mov ah,0x2a
00000960  EB3D              jmp short 0x99f
00000962  90                nop
00000963  F6C401            test ah,0x1
00000966  7405              jz 0x96d
00000968  B436              mov ah,0x36
0000096A  EB33              jmp short 0x99f
0000096C  90                nop
0000096D  A840              test al,0x40
0000096F  7405              jz 0x976
00000971  B43A              mov ah,0x3a
00000973  EB2A              jmp short 0x99f
00000975  90                nop
00000976  A820              test al,0x20
00000978  7405              jz 0x97f
0000097A  B445              mov ah,0x45
0000097C  EB21              jmp short 0x99f
0000097E  90                nop
0000097F  A810              test al,0x10
00000981  7405              jz 0x988
00000983  B446              mov ah,0x46
00000985  EB18              jmp short 0x99f
00000987  90                nop
00000988  EB8C              jmp short 0x916
0000098A  32E4              xor ah,ah
0000098C  CD16              int 0x16
0000098E  80FC5E            cmp ah,0x5e
00000991  750C              jnz 0x99f
00000993  58                pop ax
00000994  26A31600          mov [es:0x16],ax
00000998  58                pop ax
00000999  26A31400          mov [es:0x14],ax
0000099D  07                pop es
0000099E  C3                ret
0000099F  80FC53            cmp ah,0x53
000009A2  773E              ja 0x9e2
000009A4  8AC4              mov al,ah
000009A6  32E4              xor ah,ah
000009A8  8BF8              mov di,ax
000009AA  D1E0              shl ax,1
000009AC  03C7              add ax,di
000009AE  2D0300            sub ax,0x3
000009B1  BF640A            mov di,0xa64
000009B4  03F8              add di,ax
000009B6  8A35              mov dh,[di]
000009B8  8A5501            mov dl,[di+0x1]
000009BB  E88D3D            call 0x474b
000009BE  B409              mov ah,0x9
000009C0  B020              mov al,0x20
000009C2  8A3EE94F          mov bh,[0x4fe9]
000009C6  B307              mov bl,0x7
000009C8  B90100            mov cx,0x1
000009CB  CD10              int 0x10
000009CD  B90030            mov cx,0x3000
000009D0  E2FE              loop 0x9d0
000009D2  B409              mov ah,0x9
000009D4  8A4502            mov al,[di+0x2]
000009D7  8A3EE94F          mov bh,[0x4fe9]
000009DB  B307              mov bl,0x7
000009DD  B90100            mov cx,0x1
000009E0  CD10              int 0x10
000009E2  E931FF            jmp 0x916
000009E5  0320              add sp,[bx+si]
000009E7  2020              and [bx+si],ah
000009E9  2020              and [bx+si],ah
000009EB  2020              and [bx+si],ah
000009ED  2020              and [bx+si],ah
000009EF  2020              and [bx+si],ah
000009F1  2020              and [bx+si],ah
000009F3  2020              and [bx+si],ah
000009F5  48                dec ax
000009F6  49                dec cx
000009F7  54                push sp
000009F8  204541            and [di+0x41],al
000009FB  43                inc bx
000009FC  48                dec ax
000009FD  204B45            and [bp+di+0x45],cl
00000A00  59                pop cx
00000A01  204F4E            and [bx+0x4e],cl
00000A04  43                inc bx
00000A05  45                inc bp
00000A06  204F52            and [bx+0x52],cl
00000A09  20484F            and [bx+si+0x4f],cl
00000A0C  4C                dec sp
00000A0D  44                inc sp
00000A0E  20444F            and [si+0x4f],al
00000A11  57                push di
00000A12  4E                dec si
00000A13  20464F            and [bp+0x4f],al
00000A16  52                push dx
00000A17  205459            and [si+0x59],dl
00000A1A  50                push ax
00000A1B  45                inc bp
00000A1C  4D                dec bp
00000A1D  41                inc cx
00000A1E  54                push sp
00000A1F  49                dec cx
00000A20  43                inc bx
00000A21  205445            and [si+0x45],dl
00000A24  53                push bx
00000A25  54                push sp
00000A26  0D2020            or ax,0x2020
00000A29  2020              and [bx+si],ah
00000A2B  2020              and [bx+si],ah
00000A2D  2020              and [bx+si],ah
00000A2F  2020              and [bx+si],ah
00000A31  2020              and [bx+si],ah
00000A33  2020              and [bx+si],ah
00000A35  2020              and [bx+si],ah
00000A37  2020              and [bx+si],ah
00000A39  20544F            and [si+0x4f],dl
00000A3C  204558            and [di+0x58],al
00000A3F  49                dec cx
00000A40  54                push sp
00000A41  20484F            and [bx+si+0x4f],cl
00000A44  4C                dec sp
00000A45  44                inc sp
00000A46  20444F            and [si+0x4f],al
00000A49  57                push di
00000A4A  4E                dec si
00000A4B  205448            and [si+0x48],dl
00000A4E  45                inc bp
00000A4F  20434F            and [bp+di+0x4f],al
00000A52  4E                dec si
00000A53  54                push sp
00000A54  52                push dx
00000A55  4F                dec di
00000A56  4C                dec sp
00000A57  20414E            and [bx+di+0x4e],al
00000A5A  44                inc sp
00000A5B  204631            and [bp+0x31],al
00000A5E  204B45            and [bp+di+0x45],cl
00000A61  59                pop cx
00000A62  53                push bx
00000A63  0008              add [bx+si],cl
00000A65  126508            adc ah,[di+0x8]
00000A68  153108            adc ax,0x831
00000A6B  1832              sbb [bp+si],dh
00000A6D  081B              or [bp+di],bl
00000A6F  3308              xor cx,[bx+si]
00000A71  1E                push ds
00000A72  3408              xor al,0x8
00000A74  2135              and [di],si
00000A76  0824              or [si],ah
00000A78  360827            or [ss:bx],ah
00000A7B  37                aaa
00000A7C  082A              or [bp+si],ch
00000A7E  3808              cmp [bx+si],cl
00000A80  2D3908            sub ax,0x839
00000A83  3030              xor [bx+si],dh
00000A85  0833              or [bp+di],dh
00000A87  2D0836            sub ax,0x3608
00000A8A  3D0839            cmp ax,0x3908
00000A8D  620A              bound cx,[bp+si]
00000A8F  12740A            adc dh,[si+0xa]
00000A92  15510A            adc ax,0xa51
00000A95  18570A            sbb [bx+0xa],dl
00000A98  1B450A            sbb ax,[di+0xa]
00000A9B  1E                push ds
00000A9C  52                push dx
00000A9D  0A21              or ah,[bx+di]
00000A9F  54                push sp
00000AA0  0A24              or ah,[si]
00000AA2  59                pop cx
00000AA3  0A27              or ah,[bx]
00000AA5  55                push bp
00000AA6  0A2A              or ch,[bp+si]
00000AA8  49                dec cx
00000AA9  0A2D              or ch,[di]
00000AAB  4F                dec di
00000AAC  0A30              or dh,[bx+si]
00000AAE  50                push ax
00000AAF  0A33              or dh,[bp+di]
00000AB1  5B                pop bx
00000AB2  0A365D0C          or dh,[0xc5d]
00000AB6  39720C            cmp [bp+si+0xc],si
00000AB9  12630C            adc ah,[bp+di+0xc]
00000ABC  15410C            adc ax,0xc41
00000ABF  18530C            sbb [bp+di+0xc],dl
00000AC2  1B440C            sbb ax,[si+0xc]
00000AC5  1E                push ds
00000AC6  46                inc si
00000AC7  0C21              or al,0x21
00000AC9  47                inc di
00000ACA  0C24              or al,0x24
00000ACC  48                dec ax
00000ACD  0C27              or al,0x27
00000ACF  4A                dec dx
00000AD0  0C2A              or al,0x2a
00000AD2  4B                dec bx
00000AD3  0C2D              or al,0x2d
00000AD5  4C                dec sp
00000AD6  0C30              or al,0x30
00000AD8  3B0C              cmp cx,[si]
00000ADA  3327              xor sp,[bx]
00000ADC  083C              or [si],bh
00000ADE  60                pusha
00000ADF  0E                push cs
00000AE0  125E10            adc bl,[bp+0x10]
00000AE3  155C0E            adc ax,0xe5c
00000AE6  185A0E            sbb [bp+si+0xe],bl
00000AE9  1B580E            sbb bx,[bx+si+0xe]
00000AEC  1E                push ds
00000AED  43                inc bx
00000AEE  0E                push cs
00000AEF  21560E            and [bp+0xe],dx
00000AF2  2442              and al,0x42
00000AF4  0E                push cs
00000AF5  27                daa
00000AF6  4E                dec si
00000AF7  0E                push cs
00000AF8  2A4D0E            sub cl,[di+0xe]
00000AFB  2D2C0E            sub ax,0xe2c
00000AFE  302E0E33          xor [0x330e],ch
00000B02  2F                das
00000B03  0E                push cs
00000B04  365E              ss pop si
00000B06  0E                push cs
00000B07  392A              cmp [bp+si],bp
00000B09  1012              adc [bp+si],dl
00000B0B  61                popa
00000B0C  1024              adc [si],ah
00000B0E  53                push bx
00000B0F  10366308          adc [0x863],dh
00000B13  0931              or [bx+di],si
00000B15  080C              or [si],cl
00000B17  320A              xor cl,[bp+si]
00000B19  0933              or [bp+di],si
00000B1B  0A0C              or cl,[si]
00000B1D  340C              xor al,0xc
00000B1F  0935              or [di],si
00000B21  0C0C              or al,0xc
00000B23  360E              ss push cs
00000B25  0937              or [bx],si
00000B27  0E                push cs
00000B28  0C38              or al,0x38
00000B2A  1009              adc [bx+di],cl
00000B2C  3910              cmp [bx+si],dx
00000B2E  0C30              or al,0x30
00000B30  083F              or [bx],bh
00000B32  6E                outsb
00000B33  084273            or [bp+si+0x73],al
00000B36  0A3C              or bh,[si]
00000B38  37                aaa
00000B39  0A3F              or bh,[bx]
00000B3B  380A              cmp [bp+si],cl
00000B3D  42                inc dx
00000B3E  390A              cmp [bp+si],cx
00000B40  45                inc bp
00000B41  2D0C3C            sub ax,0x3c0c
00000B44  340C              xor al,0xc
00000B46  3F                aas
00000B47  350C42            xor ax,0x420c
00000B4A  360E              ss push cs
00000B4C  45                inc bp
00000B4D  2B0E3C31          sub cx,[0x313c]
00000B51  0E                push cs
00000B52  3F                aas
00000B53  320E4233          xor cl,[0x3342]
00000B57  103C              adc [si],bh
00000B59  3010              xor [bx+si],dl
00000B5B  3F                aas
00000B5C  2E803EF24F00      cmp byte [cs:0x4ff2],0x0
00000B62  750A              jnz 0xb6e
00000B64  BEAA0C            mov si,0xcaa
00000B67  E88B3C            call 0x47f5
00000B6A  E8A83C            call 0x4815
00000B6D  C3                ret
00000B6E  E8D03C            call 0x4841
00000B71  BF9852            mov di,0x5298
00000B74  E84A3C            call 0x47c1
00000B77  E8D53C            call 0x484f
00000B7A  C606085000        mov byte [0x5008],0x0
00000B7F  C606095001        mov byte [0x5009],0x1
00000B84  BFD20C            mov di,0xcd2
00000B87  E8CA3B            call 0x4754
00000B8A  E8C93C            call 0x4856
00000B8D  E8CD3C            call 0x485d
00000B90  E8E63C            call 0x4879
00000B93  8A260A50          mov ah,[0x500a]
00000B97  FEC4              inc ah
00000B99  3A26F24F          cmp ah,[0x4ff2]
00000B9D  760B              jna 0xbaa
00000B9F  BEBD4F            mov si,0x4fbd
00000BA2  E8503C            call 0x47f5
00000BA5  E86D3C            call 0x4815
00000BA8  EBC4              jmp short 0xb6e
00000BAA  A00A50            mov al,[0x500a]
00000BAD  32E4              xor ah,ah
00000BAF  D1E0              shl ax,1
00000BB1  8BF8              mov di,ax
00000BB3  83C708            add di,byte +0x8
00000BB6  06                push es
00000BB7  B84000            mov ax,0x40
00000BBA  8EC0              mov es,ax
00000BBC  26A10800          mov ax,[es:0x8]
00000BC0  268B1D            mov bx,[es:di]
00000BC3  26891E0800        mov [es:0x8],bx
00000BC8  268905            mov [es:di],ax
00000BCB  E8733C            call 0x4841
00000BCE  BA0006            mov dx,0x600
00000BD1  E8773B            call 0x474b
00000BD4  C606160E20        mov byte [0xe16],0x20
00000BD9  C606170E21        mov byte [0xe17],0x21
00000BDE  B91004            mov cx,0x410
00000BE1  51                push cx
00000BE2  B40A              mov ah,0xa
00000BE4  8A3EE94F          mov bh,[0x4fe9]
00000BE8  B90100            mov cx,0x1
00000BEB  A0160E            mov al,[0xe16]
00000BEE  CD10              int 0x10
00000BF0  FE06160E          inc byte [0xe16]
00000BF4  E83E3B            call 0x4735
00000BF7  80FA4F            cmp dl,0x4f
00000BFA  7514              jnz 0xc10
00000BFC  32D2              xor dl,dl
00000BFE  FEC6              inc dh
00000C00  E8483B            call 0x474b
00000C03  A0170E            mov al,[0xe17]
00000C06  A2160E            mov [0xe16],al
00000C09  FE06170E          inc byte [0xe17]
00000C0D  EB06              jmp short 0xc15
00000C0F  90                nop
00000C10  FEC2              inc dl
00000C12  E8363B            call 0x474b
00000C15  59                pop cx
00000C16  E2C9              loop 0xbe1
00000C18  BE7052            mov si,0x5270
00000C1B  E8D73B            call 0x47f5
00000C1E  E8AD3B            call 0x47ce
00000C21  BF6C0D            mov di,0xd6c
00000C24  E89A3B            call 0x47c1
00000C27  B402              mov ah,0x2
00000C29  33D2              xor dx,dx
00000C2B  CD17              int 0x17
00000C2D  80FC90            cmp ah,0x90
00000C30  7511              jnz 0xc43
00000C32  CD05              int 0x5
00000C34  06                push es
00000C35  B85000            mov ax,0x50
00000C38  8EC0              mov es,ax
00000C3A  26803E000000      cmp byte [es:0x0],0x0
00000C40  07                pop es
00000C41  7427              jz 0xc6a
00000C43  BEEE0D            mov si,0xdee
00000C46  E8AC3B            call 0x47f5
00000C49  BF0A53            mov di,0x530a
00000C4C  E8723B            call 0x47c1
00000C4F  E8C33B            call 0x4815
00000C52  E8873B            call 0x47dc
00000C55  80FC4E            cmp ah,0x4e
00000C58  74BE              jz 0xc18
00000C5A  80FC01            cmp ah,0x1
00000C5D  7423              jz 0xc82
00000C5F  BE4852            mov si,0x5248
00000C62  E8903B            call 0x47f5
00000C65  E8AD3B            call 0x4815
00000C68  EBE8              jmp short 0xc52
00000C6A  E86F3B            call 0x47dc
00000C6D  80FC01            cmp ah,0x1
00000C70  7410              jz 0xc82
00000C72  80FC4E            cmp ah,0x4e
00000C75  74A1              jz 0xc18
00000C77  BE4852            mov si,0x5248
00000C7A  E8783B            call 0x47f5
00000C7D  E8953B            call 0x4815
00000C80  EBE8              jmp short 0xc6a
00000C82  BE7052            mov si,0x5270
00000C85  E86D3B            call 0x47f5
00000C88  A00A50            mov al,[0x500a]
00000C8B  32E4              xor ah,ah
00000C8D  D1E0              shl ax,1
00000C8F  8BF8              mov di,ax
00000C91  83C708            add di,byte +0x8
00000C94  B84000            mov ax,0x40
00000C97  8EC0              mov es,ax
00000C99  26A10800          mov ax,[es:0x8]
00000C9D  268B1D            mov bx,[es:di]
00000CA0  26891E0800        mov [es:0x8],bx
00000CA5  268905            mov [es:di],ax
00000CA8  07                pop es
00000CA9  C3                ret
00000CAA  2020              and [bx+si],ah
00000CAC  2020              and [bx+si],ah
00000CAE  2020              and [bx+si],ah
00000CB0  2020              and [bx+si],ah
00000CB2  59                pop cx
00000CB3  6F                outsw
00000CB4  7520              jnz 0xcd6
00000CB6  686176            push word 0x7661
00000CB9  65206E6F          and [gs:bp+0x6f],ch
00000CBD  207072            and [bx+si+0x72],dh
00000CC0  696E746572        imul bp,[bp+0x74],word 0x7265
00000CC5  20706F            and [bx+si+0x6f],dh
00000CC8  7274              jc 0xd3e
00000CCA  2120              and [bx+si],sp
00000CCC  2020              and [bx+si],ah
00000CCE  2020              and [bx+si],ah
00000CD0  2020              and [bx+si],ah
00000CD2  07                pop es
00000CD3  2020              and [bx+si],ah
00000CD5  2020              and [bx+si],ah
00000CD7  2020              and [bx+si],ah
00000CD9  2020              and [bx+si],ah
00000CDB  2020              and [bx+si],ah
00000CDD  2020              and [bx+si],ah
00000CDF  2020              and [bx+si],ah
00000CE1  2020              and [bx+si],ah
00000CE3  2020              and [bx+si],ah
00000CE5  2020              and [bx+si],ah
00000CE7  2020              and [bx+si],ah
00000CE9  2020              and [bx+si],ah
00000CEB  57                push di
00000CEC  48                dec ax
00000CED  49                dec cx
00000CEE  43                inc bx
00000CEF  48                dec ax
00000CF0  204C50            and [si+0x50],cl
00000CF3  54                push sp
00000CF4  20504F            and [bx+si+0x4f],dl
00000CF7  52                push dx
00000CF8  54                push sp
00000CF9  204152            and [bx+di+0x52],al
00000CFC  45                inc bp
00000CFD  20594F            and [bx+di+0x4f],bl
00000D00  55                push bp
00000D01  205445            and [si+0x45],dl
00000D04  53                push bx
00000D05  54                push sp
00000D06  49                dec cx
00000D07  4E                dec si
00000D08  47                inc di
00000D09  3F                aas
00000D0A  0D0D20            or ax,0x200d
00000D0D  2020              and [bx+si],ah
00000D0F  2020              and [bx+si],ah
00000D11  2020              and [bx+si],ah
00000D13  2020              and [bx+si],ah
00000D15  2020              and [bx+si],ah
00000D17  2020              and [bx+si],ah
00000D19  2020              and [bx+si],ah
00000D1B  2020              and [bx+si],ah
00000D1D  2020              and [bx+si],ah
00000D1F  2020              and [bx+si],ah
00000D21  2020              and [bx+si],ah
00000D23  2020              and [bx+si],ah
00000D25  2020              and [bx+si],ah
00000D27  2020              and [bx+si],ah
00000D29  2020              and [bx+si],ah
00000D2B  2020              and [bx+si],ah
00000D2D  2020              and [bx+si],ah
00000D2F  312D              xor [di],bp
00000D31  2D2D2D            sub ax,0x2d2d
00000D34  2D2D2D            sub ax,0x2d2d
00000D37  4C                dec sp
00000D38  50                push ax
00000D39  54                push sp
00000D3A  310D              xor [di],cx
00000D3C  2020              and [bx+si],ah
00000D3E  2020              and [bx+si],ah
00000D40  2020              and [bx+si],ah
00000D42  2020              and [bx+si],ah
00000D44  2020              and [bx+si],ah
00000D46  2020              and [bx+si],ah
00000D48  2020              and [bx+si],ah
00000D4A  2020              and [bx+si],ah
00000D4C  2020              and [bx+si],ah
00000D4E  2020              and [bx+si],ah
00000D50  2020              and [bx+si],ah
00000D52  2020              and [bx+si],ah
00000D54  2020              and [bx+si],ah
00000D56  2020              and [bx+si],ah
00000D58  2020              and [bx+si],ah
00000D5A  2020              and [bx+si],ah
00000D5C  2020              and [bx+si],ah
00000D5E  2032              and [bp+si],dh
00000D60  2D2D2D            sub ax,0x2d2d
00000D63  2D2D2D            sub ax,0x2d2d
00000D66  2D4C50            sub ax,0x504c
00000D69  54                push sp
00000D6A  3200              xor al,[bx+si]
00000D6C  0320              add sp,[bx+si]
00000D6E  2020              and [bx+si],ah
00000D70  2020              and [bx+si],ah
00000D72  2020              and [bx+si],ah
00000D74  43                inc bx
00000D75  4F                dec di
00000D76  4D                dec bp
00000D77  50                push ax
00000D78  41                inc cx
00000D79  52                push dx
00000D7A  45                inc bp
00000D7B  205343            and [bp+di+0x43],dl
00000D7E  52                push dx
00000D7F  45                inc bp
00000D80  45                inc bp
00000D81  4E                dec si
00000D82  20544F            and [si+0x4f],dl
00000D85  205052            and [bx+si+0x52],dl
00000D88  49                dec cx
00000D89  4E                dec si
00000D8A  54                push sp
00000D8B  45                inc bp
00000D8C  52                push dx
00000D8D  204F55            and [bx+0x55],cl
00000D90  54                push sp
00000D91  50                push ax
00000D92  55                push bp
00000D93  54                push sp
00000D94  202D              and [di],ch
00000D96  204849            and [bx+si+0x49],cl
00000D99  54                push sp
00000D9A  204558            and [di+0x58],al
00000D9D  45                inc bp
00000D9E  43                inc bx
00000D9F  55                push bp
00000DA0  54                push sp
00000DA1  45                inc bp
00000DA2  2028              and [bx+si],ch
00000DA4  2B29              sub bp,[bx+di]
00000DA6  204B45            and [bp+di+0x45],cl
00000DA9  59                pop cx
00000DAA  20464F            and [bp+0x4f],al
00000DAD  52                push dx
00000DAE  204120            and [bx+di+0x20],al
00000DB1  52                push dx
00000DB2  45                inc bp
00000DB3  54                push sp
00000DB4  52                push dx
00000DB5  59                pop cx
00000DB6  0D2020            or ax,0x2020
00000DB9  2020              and [bx+si],ah
00000DBB  2020              and [bx+si],ah
00000DBD  2020              and [bx+si],ah
00000DBF  2020              and [bx+si],ah
00000DC1  2020              and [bx+si],ah
00000DC3  2020              and [bx+si],ah
00000DC5  2020              and [bx+si],ah
00000DC7  2020              and [bx+si],ah
00000DC9  2020              and [bx+si],ah
00000DCB  2020              and [bx+si],ah
00000DCD  2020              and [bx+si],ah
00000DCF  204F52            and [bx+0x52],cl
00000DD2  205553            and [di+0x53],dl
00000DD5  45                inc bp
00000DD6  205448            and [si+0x48],dl
00000DD9  45                inc bp
00000DDA  204553            and [di+0x53],al
00000DDD  43                inc bx
00000DDE  41                inc cx
00000DDF  50                push ax
00000DE0  45                inc bp
00000DE1  204B45            and [bp+di+0x45],cl
00000DE4  59                pop cx
00000DE5  20544F            and [si+0x4f],dl
00000DE8  204558            and [di+0x58],al
00000DEB  49                dec cx
00000DEC  54                push sp
00000DED  0020              add [bx+si],ah
00000DEF  2020              and [bx+si],ah
00000DF1  205052            and [bx+si+0x52],dl
00000DF4  49                dec cx
00000DF5  4E                dec si
00000DF6  54                push sp
00000DF7  45                inc bp
00000DF8  52                push dx
00000DF9  204552            and [di+0x52],al
00000DFC  52                push dx
00000DFD  4F                dec di
00000DFE  52                push dx
00000DFF  2020              and [bx+si],ah
00000E01  43                inc bx
00000E02  686563            push word 0x6365
00000E05  6B2043            imul sp,[bx+si],byte +0x43
00000E08  6F                outsw
00000E09  6E                outsb
00000E0A  6E                outsb
00000E0B  65637469          arpl [gs:si+0x69],si
00000E0F  6F                outsw
00000E10  6E                outsb
00000E11  7320              jnc 0xe33
00000E13  2020              and [bx+si],ah
00000E15  2000              and [bx+si],al
00000E17  00803EF3          add [bx+si-0xcc2],al
00000E1B  4F                dec di
00000E1C  00750A            add [di+0xa],dh
00000E1F  BE8410            mov si,0x1084
00000E22  E8D039            call 0x47f5
00000E25  E8ED39            call 0x4815
00000E28  C3                ret
00000E29  BF9852            mov di,0x5298
00000E2C  E89239            call 0x47c1
00000E2F  E80F3A            call 0x4841
00000E32  E81A3A            call 0x484f
00000E35  C606181800        mov byte [0x1818],0x0
00000E3A  BFAC10            mov di,0x10ac
00000E3D  C606095007        mov byte [0x5009],0x7
00000E42  C606085000        mov byte [0x5008],0x0
00000E47  E80A39            call 0x4754
00000E4A  E8093A            call 0x4856
00000E4D  E80D3A            call 0x485d
00000E50  E8263A            call 0x4879
00000E53  8A260A50          mov ah,[0x500a]
00000E57  B105              mov cl,0x5
00000E59  D2E4              shl ah,cl
00000E5B  88261818          mov [0x1818],ah
00000E5F  E8DF39            call 0x4841
00000E62  E8EA39            call 0x484f
00000E65  BF6812            mov di,0x1268
00000E68  C606095002        mov byte [0x5009],0x2
00000E6D  C606085000        mov byte [0x5008],0x0
00000E72  E8DF38            call 0x4754
00000E75  E8DE39            call 0x4856
00000E78  E8E239            call 0x485d
00000E7B  E8FB39            call 0x4879
00000E7E  FE060A50          inc byte [0x500a]
00000E82  8A260A50          mov ah,[0x500a]
00000E86  B103              mov cl,0x3
00000E88  D2E4              shl ah,cl
00000E8A  08261818          or [0x1818],ah
00000E8E  E8B039            call 0x4841
00000E91  E8BB39            call 0x484f
00000E94  BF3713            mov di,0x1337
00000E97  C606095001        mov byte [0x5009],0x1
00000E9C  C606085000        mov byte [0x5008],0x0
00000EA1  E8B038            call 0x4754
00000EA4  E8AF39            call 0x4856
00000EA7  E8B339            call 0x485d
00000EAA  E8CC39            call 0x4879
00000EAD  8A260A50          mov ah,[0x500a]
00000EB1  B102              mov cl,0x2
00000EB3  D2E4              shl ah,cl
00000EB5  08261818          or [0x1818],ah
00000EB9  E88539            call 0x4841
00000EBC  E89039            call 0x484f
00000EBF  BFD913            mov di,0x13d9
00000EC2  C606095001        mov byte [0x5009],0x1
00000EC7  C606085000        mov byte [0x5008],0x0
00000ECC  E88538            call 0x4754
00000ECF  E88439            call 0x4856
00000ED2  E88839            call 0x485d
00000ED5  E8A139            call 0x4879
00000ED8  80060A5002        add byte [0x500a],0x2
00000EDD  8A260A50          mov ah,[0x500a]
00000EE1  08261818          or [0x1818],ah
00000EE5  E85939            call 0x4841
00000EE8  E86439            call 0x484f
00000EEB  BF7A14            mov di,0x147a
00000EEE  C606095002        mov byte [0x5009],0x2
00000EF3  C606085000        mov byte [0x5008],0x0
00000EF8  E85938            call 0x4754
00000EFB  E85839            call 0x4856
00000EFE  E85C39            call 0x485d
00000F01  E87539            call 0x4879
00000F04  A00A50            mov al,[0x500a]
00000F07  32E4              xor ah,ah
00000F09  A31918            mov [0x1819],ax
00000F0C  8BF0              mov si,ax
00000F0E  03F6              add si,si
00000F10  B84000            mov ax,0x40
00000F13  8EC0              mov es,ax
00000F15  26833C00          cmp word [es:si],byte +0x0
00000F19  750C              jnz 0xf27
00000F1B  BEBD4F            mov si,0x4fbd
00000F1E  E8D438            call 0x47f5
00000F21  E8F138            call 0x4815
00000F24  E902FF            jmp 0xe29
00000F27  E81739            call 0x4841
00000F2A  BF4415            mov di,0x1544
00000F2D  E89138            call 0x47c1
00000F30  E81C39            call 0x484f
00000F33  8B161918          mov dx,[0x1819]
00000F37  B400              mov ah,0x0
00000F39  A01818            mov al,[0x1818]
00000F3C  CD14              int 0x14
00000F3E  E80E39            call 0x484f
00000F41  B401              mov ah,0x1
00000F43  CD16              int 0x16
00000F45  7464              jz 0xfab
00000F47  B400              mov ah,0x0
00000F49  CD16              int 0x16
00000F4B  80FC01            cmp ah,0x1
00000F4E  7524              jnz 0xf74
00000F50  BE7052            mov si,0x5270
00000F53  E89F38            call 0x47f5
00000F56  8B361918          mov si,[0x1819]
00000F5A  03F6              add si,si
00000F5C  B84000            mov ax,0x40
00000F5F  8EC0              mov es,ax
00000F61  268B14            mov dx,[es:si]
00000F64  83C204            add dx,byte +0x4
00000F67  B000              mov al,0x0
00000F69  EE                out dx,al
00000F6A  8B161918          mov dx,[0x1819]
00000F6E  B8A300            mov ax,0xa3
00000F71  CD14              int 0x14
00000F73  C3                ret
00000F74  80FC4E            cmp ah,0x4e
00000F77  740C              jz 0xf85
00000F79  BE4852            mov si,0x5248
00000F7C  E87638            call 0x47f5
00000F7F  E89338            call 0x4815
00000F82  EB27              jmp short 0xfab
00000F84  90                nop
00000F85  BE7052            mov si,0x5270
00000F88  E86A38            call 0x47f5
00000F8B  8B361918          mov si,[0x1819]
00000F8F  03F6              add si,si
00000F91  B84000            mov ax,0x40
00000F94  8EC0              mov es,ax
00000F96  268B14            mov dx,[es:si]
00000F99  83C204            add dx,byte +0x4
00000F9C  B000              mov al,0x0
00000F9E  EE                out dx,al
00000F9F  8B161918          mov dx,[0x1819]
00000FA3  B8A300            mov ax,0xa3
00000FA6  CD14              int 0x14
00000FA8  E97EFE            jmp 0xe29
00000FAB  8B361918          mov si,[0x1819]
00000FAF  03F6              add si,si
00000FB1  B84000            mov ax,0x40
00000FB4  8EC0              mov es,ax
00000FB6  268B14            mov dx,[es:si]
00000FB9  83C204            add dx,byte +0x4
00000FBC  B010              mov al,0x10
00000FBE  EE                out dx,al
00000FBF  42                inc dx
00000FC0  B720              mov bh,0x20
00000FC2  E89C00            call 0x1061
00000FC5  7409              jz 0xfd0
00000FC7  BFBD15            mov di,0x15bd
00000FCA  E8AA00            call 0x1077
00000FCD  E96EFF            jmp 0xf3e
00000FD0  A01B18            mov al,[0x181b]
00000FD3  83EA05            sub dx,byte +0x5
00000FD6  EE                out dx,al
00000FD7  83C205            add dx,byte +0x5
00000FDA  B701              mov bh,0x1
00000FDC  E88200            call 0x1061
00000FDF  7409              jz 0xfea
00000FE1  BF0016            mov di,0x1600
00000FE4  E89000            call 0x1077
00000FE7  E954FF            jmp 0xf3e
00000FEA  83EA05            sub dx,byte +0x5
00000FED  EC                in al,dx
00000FEE  80E41E            and ah,0x1e
00000FF1  742A              jz 0x101d
00000FF3  F6C410            test ah,0x10
00000FF6  7406              jz 0xffe
00000FF8  BF4316            mov di,0x1643
00000FFB  EB1A              jmp short 0x1017
00000FFD  90                nop
00000FFE  F6C408            test ah,0x8
00001001  7406              jz 0x1009
00001003  BF8616            mov di,0x1686
00001006  EB0F              jmp short 0x1017
00001008  90                nop
00001009  F6C404            test ah,0x4
0000100C  7406              jz 0x1014
0000100E  BFC916            mov di,0x16c9
00001011  EB04              jmp short 0x1017
00001013  90                nop
00001014  BF0C17            mov di,0x170c
00001017  E85D00            call 0x1077
0000101A  E921FF            jmp 0xf3e
0000101D  3A061B18          cmp al,[0x181b]
00001021  7409              jz 0x102c
00001023  BF4F17            mov di,0x174f
00001026  E84E00            call 0x1077
00001029  E912FF            jmp 0xf3e
0000102C  83C204            add dx,byte +0x4
0000102F  B01F              mov al,0x1f
00001031  EE                out dx,al
00001032  83C202            add dx,byte +0x2
00001035  EC                in al,dx
00001036  24F0              and al,0xf0
00001038  3CF0              cmp al,0xf0
0000103A  7406              jz 0x1042
0000103C  BF9217            mov di,0x1792
0000103F  EB1A              jmp short 0x105b
00001041  90                nop
00001042  83EA02            sub dx,byte +0x2
00001045  B010              mov al,0x10
00001047  EE                out dx,al
00001048  83C202            add dx,byte +0x2
0000104B  EC                in al,dx
0000104C  24F0              and al,0xf0
0000104E  3C00              cmp al,0x0
00001050  7406              jz 0x1058
00001052  BF9217            mov di,0x1792
00001055  EB04              jmp short 0x105b
00001057  90                nop
00001058  BFD517            mov di,0x17d5
0000105B  E81900            call 0x1077
0000105E  E9DDFE            jmp 0xf3e
00001061  B302              mov bl,0x2
00001063  33C9              xor cx,cx
00001065  EC                in al,dx
00001066  8AE0              mov ah,al
00001068  22C7              and al,bh
0000106A  3AC7              cmp al,bh
0000106C  7408              jz 0x1076
0000106E  E2F5              loop 0x1065
00001070  FECB              dec bl
00001072  75EF              jnz 0x1063
00001074  0AFF              or bh,bh
00001076  C3                ret
00001077  E8DA36            call 0x4754
0000107A  FE061B18          inc byte [0x181b]
0000107E  80261B187F        and byte [0x181b],0x7f
00001083  C3                ret
00001084  2020              and [bx+si],ah
00001086  2020              and [bx+si],ah
00001088  59                pop cx
00001089  6F                outsw
0000108A  7520              jnz 0x10ac
0000108C  686176            push word 0x7661
0000108F  65206E6F          and [gs:bp+0x6f],ch
00001093  20636F            and [bp+di+0x6f],ah
00001096  6D                insw
00001097  6D                insw
00001098  756E              jnz 0x1108
0000109A  6963617469        imul sp,[bp+di+0x61],word 0x6974
0000109F  6F                outsw
000010A0  6E                outsb
000010A1  7320              jnc 0x10c3
000010A3  706F              jo 0x1114
000010A5  7274              jc 0x111b
000010A7  2120              and [bx+si],sp
000010A9  2020              and [bx+si],ah
000010AB  2007              and [bx],al
000010AD  2020              and [bx+si],ah
000010AF  2020              and [bx+si],ah
000010B1  2020              and [bx+si],ah
000010B3  2020              and [bx+si],ah
000010B5  2020              and [bx+si],ah
000010B7  2020              and [bx+si],ah
000010B9  2020              and [bx+si],ah
000010BB  2020              and [bx+si],ah
000010BD  2020              and [bx+si],ah
000010BF  2020              and [bx+si],ah
000010C1  2020              and [bx+si],ah
000010C3  57                push di
000010C4  48                dec ax
000010C5  41                inc cx
000010C6  54                push sp
000010C7  204241            and [bp+si+0x41],al
000010CA  55                push bp
000010CB  44                inc sp
000010CC  205241            and [bp+si+0x41],dl
000010CF  54                push sp
000010D0  45                inc bp
000010D1  20444F            and [si+0x4f],al
000010D4  20594F            and [bx+di+0x4f],bl
000010D7  55                push bp
000010D8  205741            and [bx+0x41],dl
000010DB  4E                dec si
000010DC  54                push sp
000010DD  20544F            and [si+0x4f],dl
000010E0  205445            and [si+0x45],dl
000010E3  53                push bx
000010E4  54                push sp
000010E5  3F                aas
000010E6  0D0D20            or ax,0x200d
000010E9  2020              and [bx+si],ah
000010EB  2020              and [bx+si],ah
000010ED  2020              and [bx+si],ah
000010EF  2020              and [bx+si],ah
000010F1  2020              and [bx+si],ah
000010F3  2020              and [bx+si],ah
000010F5  2020              and [bx+si],ah
000010F7  2020              and [bx+si],ah
000010F9  2020              and [bx+si],ah
000010FB  2020              and [bx+si],ah
000010FD  2020              and [bx+si],ah
000010FF  2020              and [bx+si],ah
00001101  2020              and [bx+si],ah
00001103  2020              and [bx+si],ah
00001105  2020              and [bx+si],ah
00001107  2020              and [bx+si],ah
00001109  2020              and [bx+si],ah
0000110B  312D              xor [di],bp
0000110D  2D2D2D            sub ax,0x2d2d
00001110  2D2D2D            sub ax,0x2d2d
00001113  3131              xor [bx+di],si
00001115  3020              xor [bx+si],ah
00001117  0D2020            or ax,0x2020
0000111A  2020              and [bx+si],ah
0000111C  2020              and [bx+si],ah
0000111E  2020              and [bx+si],ah
00001120  2020              and [bx+si],ah
00001122  2020              and [bx+si],ah
00001124  2020              and [bx+si],ah
00001126  2020              and [bx+si],ah
00001128  2020              and [bx+si],ah
0000112A  2020              and [bx+si],ah
0000112C  2020              and [bx+si],ah
0000112E  2020              and [bx+si],ah
00001130  2020              and [bx+si],ah
00001132  2020              and [bx+si],ah
00001134  2020              and [bx+si],ah
00001136  2020              and [bx+si],ah
00001138  2020              and [bx+si],ah
0000113A  2032              and [bp+si],dh
0000113C  2D2D2D            sub ax,0x2d2d
0000113F  2D2D2D            sub ax,0x2d2d
00001142  2D3135            sub ax,0x3531
00001145  3020              xor [bx+si],ah
00001147  0D2020            or ax,0x2020
0000114A  2020              and [bx+si],ah
0000114C  2020              and [bx+si],ah
0000114E  2020              and [bx+si],ah
00001150  2020              and [bx+si],ah
00001152  2020              and [bx+si],ah
00001154  2020              and [bx+si],ah
00001156  2020              and [bx+si],ah
00001158  2020              and [bx+si],ah
0000115A  2020              and [bx+si],ah
0000115C  2020              and [bx+si],ah
0000115E  2020              and [bx+si],ah
00001160  2020              and [bx+si],ah
00001162  2020              and [bx+si],ah
00001164  2020              and [bx+si],ah
00001166  2020              and [bx+si],ah
00001168  2020              and [bx+si],ah
0000116A  2033              and [bp+di],dh
0000116C  2D2D2D            sub ax,0x2d2d
0000116F  2D2D2D            sub ax,0x2d2d
00001172  2D3330            sub ax,0x3033
00001175  3020              xor [bx+si],ah
00001177  0D2020            or ax,0x2020
0000117A  2020              and [bx+si],ah
0000117C  2020              and [bx+si],ah
0000117E  2020              and [bx+si],ah
00001180  2020              and [bx+si],ah
00001182  2020              and [bx+si],ah
00001184  2020              and [bx+si],ah
00001186  2020              and [bx+si],ah
00001188  2020              and [bx+si],ah
0000118A  2020              and [bx+si],ah
0000118C  2020              and [bx+si],ah
0000118E  2020              and [bx+si],ah
00001190  2020              and [bx+si],ah
00001192  2020              and [bx+si],ah
00001194  2020              and [bx+si],ah
00001196  2020              and [bx+si],ah
00001198  2020              and [bx+si],ah
0000119A  2034              and [si],dh
0000119C  2D2D2D            sub ax,0x2d2d
0000119F  2D2D2D            sub ax,0x2d2d
000011A2  2D3630            sub ax,0x3036
000011A5  3020              xor [bx+si],ah
000011A7  0D2020            or ax,0x2020
000011AA  2020              and [bx+si],ah
000011AC  2020              and [bx+si],ah
000011AE  2020              and [bx+si],ah
000011B0  2020              and [bx+si],ah
000011B2  2020              and [bx+si],ah
000011B4  2020              and [bx+si],ah
000011B6  2020              and [bx+si],ah
000011B8  2020              and [bx+si],ah
000011BA  2020              and [bx+si],ah
000011BC  2020              and [bx+si],ah
000011BE  2020              and [bx+si],ah
000011C0  2020              and [bx+si],ah
000011C2  2020              and [bx+si],ah
000011C4  2020              and [bx+si],ah
000011C6  2020              and [bx+si],ah
000011C8  2020              and [bx+si],ah
000011CA  2035              and [di],dh
000011CC  2D2D2D            sub ax,0x2d2d
000011CF  2D2D2D            sub ax,0x2d2d
000011D2  2D3132            sub ax,0x3231
000011D5  3030              xor [bx+si],dh
000011D7  0D2020            or ax,0x2020
000011DA  2020              and [bx+si],ah
000011DC  2020              and [bx+si],ah
000011DE  2020              and [bx+si],ah
000011E0  2020              and [bx+si],ah
000011E2  2020              and [bx+si],ah
000011E4  2020              and [bx+si],ah
000011E6  2020              and [bx+si],ah
000011E8  2020              and [bx+si],ah
000011EA  2020              and [bx+si],ah
000011EC  2020              and [bx+si],ah
000011EE  2020              and [bx+si],ah
000011F0  2020              and [bx+si],ah
000011F2  2020              and [bx+si],ah
000011F4  2020              and [bx+si],ah
000011F6  2020              and [bx+si],ah
000011F8  2020              and [bx+si],ah
000011FA  20362D2D          and [0x2d2d],dh
000011FE  2D2D2D            sub ax,0x2d2d
00001201  2D2D32            sub ax,0x322d
00001204  3430              xor al,0x30
00001206  300D              xor [di],cl
00001208  2020              and [bx+si],ah
0000120A  2020              and [bx+si],ah
0000120C  2020              and [bx+si],ah
0000120E  2020              and [bx+si],ah
00001210  2020              and [bx+si],ah
00001212  2020              and [bx+si],ah
00001214  2020              and [bx+si],ah
00001216  2020              and [bx+si],ah
00001218  2020              and [bx+si],ah
0000121A  2020              and [bx+si],ah
0000121C  2020              and [bx+si],ah
0000121E  2020              and [bx+si],ah
00001220  2020              and [bx+si],ah
00001222  2020              and [bx+si],ah
00001224  2020              and [bx+si],ah
00001226  2020              and [bx+si],ah
00001228  2020              and [bx+si],ah
0000122A  2037              and [bx],dh
0000122C  2D2D2D            sub ax,0x2d2d
0000122F  2D2D2D            sub ax,0x2d2d
00001232  2D3438            sub ax,0x3834
00001235  3030              xor [bx+si],dh
00001237  0D2020            or ax,0x2020
0000123A  2020              and [bx+si],ah
0000123C  2020              and [bx+si],ah
0000123E  2020              and [bx+si],ah
00001240  2020              and [bx+si],ah
00001242  2020              and [bx+si],ah
00001244  2020              and [bx+si],ah
00001246  2020              and [bx+si],ah
00001248  2020              and [bx+si],ah
0000124A  2020              and [bx+si],ah
0000124C  2020              and [bx+si],ah
0000124E  2020              and [bx+si],ah
00001250  2020              and [bx+si],ah
00001252  2020              and [bx+si],ah
00001254  2020              and [bx+si],ah
00001256  2020              and [bx+si],ah
00001258  2020              and [bx+si],ah
0000125A  2038              and [bx+si],bh
0000125C  2D2D2D            sub ax,0x2d2d
0000125F  2D2D2D            sub ax,0x2d2d
00001262  2D3936            sub ax,0x3639
00001265  3030              xor [bx+si],dh
00001267  0007              add [bx],al
00001269  2020              and [bx+si],ah
0000126B  2020              and [bx+si],ah
0000126D  2020              and [bx+si],ah
0000126F  2020              and [bx+si],ah
00001271  2020              and [bx+si],ah
00001273  2020              and [bx+si],ah
00001275  2020              and [bx+si],ah
00001277  2020              and [bx+si],ah
00001279  2020              and [bx+si],ah
0000127B  2020              and [bx+si],ah
0000127D  57                push di
0000127E  48                dec ax
0000127F  41                inc cx
00001280  54                push sp
00001281  205459            and [si+0x59],dl
00001284  50                push ax
00001285  45                inc bp
00001286  204F46            and [bx+0x46],cl
00001289  205041            and [bx+si+0x41],dl
0000128C  52                push dx
0000128D  49                dec cx
0000128E  54                push sp
0000128F  59                pop cx
00001290  20444F            and [si+0x4f],al
00001293  20594F            and [bx+di+0x4f],bl
00001296  55                push bp
00001297  205741            and [bx+0x41],dl
0000129A  4E                dec si
0000129B  54                push sp
0000129C  20544F            and [si+0x4f],dl
0000129F  205445            and [si+0x45],dl
000012A2  53                push bx
000012A3  54                push sp
000012A4  3F                aas
000012A5  0D0D20            or ax,0x200d
000012A8  2020              and [bx+si],ah
000012AA  2020              and [bx+si],ah
000012AC  2020              and [bx+si],ah
000012AE  2020              and [bx+si],ah
000012B0  2020              and [bx+si],ah
000012B2  2020              and [bx+si],ah
000012B4  2020              and [bx+si],ah
000012B6  2020              and [bx+si],ah
000012B8  2020              and [bx+si],ah
000012BA  2020              and [bx+si],ah
000012BC  2020              and [bx+si],ah
000012BE  2020              and [bx+si],ah
000012C0  2020              and [bx+si],ah
000012C2  2020              and [bx+si],ah
000012C4  2020              and [bx+si],ah
000012C6  2020              and [bx+si],ah
000012C8  2020              and [bx+si],ah
000012CA  312D              xor [di],bp
000012CC  2D2D2D            sub ax,0x2d2d
000012CF  2D2D2D            sub ax,0x2d2d
000012D2  45                inc bp
000012D3  56                push si
000012D4  45                inc bp
000012D5  4E                dec si
000012D6  0D2020            or ax,0x2020
000012D9  2020              and [bx+si],ah
000012DB  2020              and [bx+si],ah
000012DD  2020              and [bx+si],ah
000012DF  2020              and [bx+si],ah
000012E1  2020              and [bx+si],ah
000012E3  2020              and [bx+si],ah
000012E5  2020              and [bx+si],ah
000012E7  2020              and [bx+si],ah
000012E9  2020              and [bx+si],ah
000012EB  2020              and [bx+si],ah
000012ED  2020              and [bx+si],ah
000012EF  2020              and [bx+si],ah
000012F1  2020              and [bx+si],ah
000012F3  2020              and [bx+si],ah
000012F5  2020              and [bx+si],ah
000012F7  2020              and [bx+si],ah
000012F9  2032              and [bp+si],dh
000012FB  2D2D2D            sub ax,0x2d2d
000012FE  2D2D2D            sub ax,0x2d2d
00001301  2D4E4F            sub ax,0x4f4e
00001304  4E                dec si
00001305  45                inc bp
00001306  0D2020            or ax,0x2020
00001309  2020              and [bx+si],ah
0000130B  2020              and [bx+si],ah
0000130D  2020              and [bx+si],ah
0000130F  2020              and [bx+si],ah
00001311  2020              and [bx+si],ah
00001313  2020              and [bx+si],ah
00001315  2020              and [bx+si],ah
00001317  2020              and [bx+si],ah
00001319  2020              and [bx+si],ah
0000131B  2020              and [bx+si],ah
0000131D  2020              and [bx+si],ah
0000131F  2020              and [bx+si],ah
00001321  2020              and [bx+si],ah
00001323  2020              and [bx+si],ah
00001325  2020              and [bx+si],ah
00001327  2020              and [bx+si],ah
00001329  2033              and [bp+di],dh
0000132B  2D2D2D            sub ax,0x2d2d
0000132E  2D2D2D            sub ax,0x2d2d
00001331  2D4F44            sub ax,0x444f
00001334  44                inc sp
00001335  2000              and [bx+si],al
00001337  07                pop es
00001338  2020              and [bx+si],ah
0000133A  2020              and [bx+si],ah
0000133C  2020              and [bx+si],ah
0000133E  2020              and [bx+si],ah
00001340  2020              and [bx+si],ah
00001342  2020              and [bx+si],ah
00001344  2020              and [bx+si],ah
00001346  2020              and [bx+si],ah
00001348  2020              and [bx+si],ah
0000134A  2020              and [bx+si],ah
0000134C  20484F            and [bx+si+0x4f],cl
0000134F  57                push di
00001350  204D41            and [di+0x41],cl
00001353  4E                dec si
00001354  59                pop cx
00001355  205354            and [bp+di+0x54],dl
00001358  4F                dec di
00001359  50                push ax
0000135A  204249            and [bp+si+0x49],al
0000135D  54                push sp
0000135E  53                push bx
0000135F  20444F            and [si+0x4f],al
00001362  20594F            and [bx+di+0x4f],bl
00001365  55                push bp
00001366  205741            and [bx+0x41],dl
00001369  4E                dec si
0000136A  54                push sp
0000136B  20544F            and [si+0x4f],dl
0000136E  205553            and [di+0x53],dl
00001371  45                inc bp
00001372  3F                aas
00001373  0D0D20            or ax,0x200d
00001376  2020              and [bx+si],ah
00001378  2020              and [bx+si],ah
0000137A  2020              and [bx+si],ah
0000137C  2020              and [bx+si],ah
0000137E  2020              and [bx+si],ah
00001380  2020              and [bx+si],ah
00001382  2020              and [bx+si],ah
00001384  2020              and [bx+si],ah
00001386  2020              and [bx+si],ah
00001388  2020              and [bx+si],ah
0000138A  2020              and [bx+si],ah
0000138C  2020              and [bx+si],ah
0000138E  2020              and [bx+si],ah
00001390  2020              and [bx+si],ah
00001392  2020              and [bx+si],ah
00001394  2020              and [bx+si],ah
00001396  2020              and [bx+si],ah
00001398  312D              xor [di],bp
0000139A  2D2D2D            sub ax,0x2d2d
0000139D  2D2D2D            sub ax,0x2d2d
000013A0  3120              xor [bx+si],sp
000013A2  42                inc dx
000013A3  49                dec cx
000013A4  54                push sp
000013A5  200D              and [di],cl
000013A7  2020              and [bx+si],ah
000013A9  2020              and [bx+si],ah
000013AB  2020              and [bx+si],ah
000013AD  2020              and [bx+si],ah
000013AF  2020              and [bx+si],ah
000013B1  2020              and [bx+si],ah
000013B3  2020              and [bx+si],ah
000013B5  2020              and [bx+si],ah
000013B7  2020              and [bx+si],ah
000013B9  2020              and [bx+si],ah
000013BB  2020              and [bx+si],ah
000013BD  2020              and [bx+si],ah
000013BF  2020              and [bx+si],ah
000013C1  2020              and [bx+si],ah
000013C3  2020              and [bx+si],ah
000013C5  2020              and [bx+si],ah
000013C7  2020              and [bx+si],ah
000013C9  2032              and [bp+si],dh
000013CB  2D2D2D            sub ax,0x2d2d
000013CE  2D2D2D            sub ax,0x2d2d
000013D1  2D3220            sub ax,0x2032
000013D4  42                inc dx
000013D5  49                dec cx
000013D6  54                push sp
000013D7  53                push bx
000013D8  0007              add [bx],al
000013DA  2020              and [bx+si],ah
000013DC  2020              and [bx+si],ah
000013DE  2020              and [bx+si],ah
000013E0  2020              and [bx+si],ah
000013E2  2020              and [bx+si],ah
000013E4  2020              and [bx+si],ah
000013E6  2020              and [bx+si],ah
000013E8  2020              and [bx+si],ah
000013EA  2020              and [bx+si],ah
000013EC  2020              and [bx+si],ah
000013EE  2020              and [bx+si],ah
000013F0  57                push di
000013F1  48                dec ax
000013F2  41                inc cx
000013F3  54                push sp
000013F4  20574F            and [bx+0x4f],dl
000013F7  52                push dx
000013F8  44                inc sp
000013F9  204C45            and [si+0x45],cl
000013FC  4E                dec si
000013FD  47                inc di
000013FE  54                push sp
000013FF  48                dec ax
00001400  20444F            and [si+0x4f],al
00001403  20594F            and [bx+di+0x4f],bl
00001406  55                push bp
00001407  205741            and [bx+0x41],dl
0000140A  4E                dec si
0000140B  54                push sp
0000140C  20544F            and [si+0x4f],dl
0000140F  205553            and [di+0x53],dl
00001412  45                inc bp
00001413  3F                aas
00001414  0D0D20            or ax,0x200d
00001417  2020              and [bx+si],ah
00001419  2020              and [bx+si],ah
0000141B  2020              and [bx+si],ah
0000141D  2020              and [bx+si],ah
0000141F  2020              and [bx+si],ah
00001421  2020              and [bx+si],ah
00001423  2020              and [bx+si],ah
00001425  2020              and [bx+si],ah
00001427  2020              and [bx+si],ah
00001429  2020              and [bx+si],ah
0000142B  2020              and [bx+si],ah
0000142D  2020              and [bx+si],ah
0000142F  2020              and [bx+si],ah
00001431  2020              and [bx+si],ah
00001433  2020              and [bx+si],ah
00001435  2020              and [bx+si],ah
00001437  2020              and [bx+si],ah
00001439  312D              xor [di],bp
0000143B  2D2D2D            sub ax,0x2d2d
0000143E  2D2D2D            sub ax,0x2d2d
00001441  37                aaa
00001442  204249            and [bp+si+0x49],al
00001445  54                push sp
00001446  53                push bx
00001447  0D2020            or ax,0x2020
0000144A  2020              and [bx+si],ah
0000144C  2020              and [bx+si],ah
0000144E  2020              and [bx+si],ah
00001450  2020              and [bx+si],ah
00001452  2020              and [bx+si],ah
00001454  2020              and [bx+si],ah
00001456  2020              and [bx+si],ah
00001458  2020              and [bx+si],ah
0000145A  2020              and [bx+si],ah
0000145C  2020              and [bx+si],ah
0000145E  2020              and [bx+si],ah
00001460  2020              and [bx+si],ah
00001462  2020              and [bx+si],ah
00001464  2020              and [bx+si],ah
00001466  2020              and [bx+si],ah
00001468  2020              and [bx+si],ah
0000146A  2032              and [bp+si],dh
0000146C  2D2D2D            sub ax,0x2d2d
0000146F  2D2D2D            sub ax,0x2d2d
00001472  2D3820            sub ax,0x2038
00001475  42                inc dx
00001476  49                dec cx
00001477  54                push sp
00001478  53                push bx
00001479  0007              add [bx],al
0000147B  2020              and [bx+si],ah
0000147D  2020              and [bx+si],ah
0000147F  2020              and [bx+si],ah
00001481  2020              and [bx+si],ah
00001483  2020              and [bx+si],ah
00001485  2020              and [bx+si],ah
00001487  2020              and [bx+si],ah
00001489  2020              and [bx+si],ah
0000148B  2020              and [bx+si],ah
0000148D  2020              and [bx+si],ah
0000148F  2020              and [bx+si],ah
00001491  2020              and [bx+si],ah
00001493  57                push di
00001494  48                dec ax
00001495  49                dec cx
00001496  43                inc bx
00001497  48                dec ax
00001498  20434F            and [bp+di+0x4f],al
0000149B  4D                dec bp
0000149C  20504F            and [bx+si+0x4f],dl
0000149F  52                push dx
000014A0  54                push sp
000014A1  204152            and [bx+di+0x52],al
000014A4  45                inc bp
000014A5  20594F            and [bx+di+0x4f],bl
000014A8  55                push bp
000014A9  205445            and [si+0x45],dl
000014AC  53                push bx
000014AD  54                push sp
000014AE  49                dec cx
000014AF  4E                dec si
000014B0  47                inc di
000014B1  3F                aas
000014B2  0D0D20            or ax,0x200d
000014B5  2020              and [bx+si],ah
000014B7  2020              and [bx+si],ah
000014B9  2020              and [bx+si],ah
000014BB  2020              and [bx+si],ah
000014BD  2020              and [bx+si],ah
000014BF  2020              and [bx+si],ah
000014C1  2020              and [bx+si],ah
000014C3  2020              and [bx+si],ah
000014C5  2020              and [bx+si],ah
000014C7  2020              and [bx+si],ah
000014C9  2020              and [bx+si],ah
000014CB  2020              and [bx+si],ah
000014CD  2020              and [bx+si],ah
000014CF  2020              and [bx+si],ah
000014D1  2020              and [bx+si],ah
000014D3  2020              and [bx+si],ah
000014D5  2020              and [bx+si],ah
000014D7  312D              xor [di],bp
000014D9  2D2D2D            sub ax,0x2d2d
000014DC  2D2D2D            sub ax,0x2d2d
000014DF  43                inc bx
000014E0  4F                dec di
000014E1  4D                dec bp
000014E2  310D              xor [di],cx
000014E4  2020              and [bx+si],ah
000014E6  2020              and [bx+si],ah
000014E8  2020              and [bx+si],ah
000014EA  2020              and [bx+si],ah
000014EC  2020              and [bx+si],ah
000014EE  2020              and [bx+si],ah
000014F0  2020              and [bx+si],ah
000014F2  2020              and [bx+si],ah
000014F4  2020              and [bx+si],ah
000014F6  2020              and [bx+si],ah
000014F8  2020              and [bx+si],ah
000014FA  2020              and [bx+si],ah
000014FC  2020              and [bx+si],ah
000014FE  2020              and [bx+si],ah
00001500  2020              and [bx+si],ah
00001502  2020              and [bx+si],ah
00001504  2020              and [bx+si],ah
00001506  2032              and [bp+si],dh
00001508  2D2D2D            sub ax,0x2d2d
0000150B  2D2D2D            sub ax,0x2d2d
0000150E  2D434F            sub ax,0x4f43
00001511  4D                dec bp
00001512  320D              xor cl,[di]
00001514  2020              and [bx+si],ah
00001516  2020              and [bx+si],ah
00001518  2020              and [bx+si],ah
0000151A  2020              and [bx+si],ah
0000151C  2020              and [bx+si],ah
0000151E  2020              and [bx+si],ah
00001520  2020              and [bx+si],ah
00001522  2020              and [bx+si],ah
00001524  2020              and [bx+si],ah
00001526  2020              and [bx+si],ah
00001528  2020              and [bx+si],ah
0000152A  2020              and [bx+si],ah
0000152C  2020              and [bx+si],ah
0000152E  2020              and [bx+si],ah
00001530  2020              and [bx+si],ah
00001532  2020              and [bx+si],ah
00001534  2020              and [bx+si],ah
00001536  2033              and [bp+di],dh
00001538  2D2D2D            sub ax,0x2d2d
0000153B  2D2D2D            sub ax,0x2d2d
0000153E  2D434F            sub ax,0x4f43
00001541  4D                dec bp
00001542  3300              xor ax,[bx+si]
00001544  0320              add sp,[bx+si]
00001546  2020              and [bx+si],ah
00001548  2020              and [bx+si],ah
0000154A  2020              and [bx+si],ah
0000154C  2020              and [bx+si],ah
0000154E  2020              and [bx+si],ah
00001550  2020              and [bx+si],ah
00001552  2020              and [bx+si],ah
00001554  204849            and [bx+si+0x49],cl
00001557  54                push sp
00001558  205448            and [si+0x48],dl
0000155B  45                inc bp
0000155C  204558            and [di+0x58],al
0000155F  45                inc bp
00001560  43                inc bx
00001561  55                push bp
00001562  54                push sp
00001563  45                inc bp
00001564  2028              and [bx+si],ch
00001566  2B29              sub bp,[bx+di]
00001568  204B45            and [bp+di+0x45],cl
0000156B  59                pop cx
0000156C  20544F            and [si+0x4f],dl
0000156F  205345            and [bp+di+0x45],dl
00001572  4C                dec sp
00001573  45                inc bp
00001574  43                inc bx
00001575  54                push sp
00001576  204E45            and [bp+0x45],cl
00001579  57                push di
0000157A  205041            and [bx+si+0x41],dl
0000157D  52                push dx
0000157E  41                inc cx
0000157F  4D                dec bp
00001580  45                inc bp
00001581  54                push sp
00001582  45                inc bp
00001583  52                push dx
00001584  53                push bx
00001585  0D2020            or ax,0x2020
00001588  2020              and [bx+si],ah
0000158A  2020              and [bx+si],ah
0000158C  2020              and [bx+si],ah
0000158E  2020              and [bx+si],ah
00001590  2020              and [bx+si],ah
00001592  2020              and [bx+si],ah
00001594  2020              and [bx+si],ah
00001596  2020              and [bx+si],ah
00001598  2020              and [bx+si],ah
0000159A  2020              and [bx+si],ah
0000159C  2020              and [bx+si],ah
0000159E  204F52            and [bx+0x52],cl
000015A1  205553            and [di+0x53],dl
000015A4  45                inc bp
000015A5  205448            and [si+0x48],dl
000015A8  45                inc bp
000015A9  204553            and [di+0x53],al
000015AC  43                inc bx
000015AD  41                inc cx
000015AE  50                push ax
000015AF  45                inc bp
000015B0  204B45            and [bp+di+0x45],cl
000015B3  59                pop cx
000015B4  20544F            and [si+0x4f],dl
000015B7  204558            and [di+0x58],al
000015BA  49                dec cx
000015BB  54                push sp
000015BC  00062020          add [0x2020],al
000015C0  2020              and [bx+si],ah
000015C2  2020              and [bx+si],ah
000015C4  2020              and [bx+si],ah
000015C6  2020              and [bx+si],ah
000015C8  2020              and [bx+si],ah
000015CA  2020              and [bx+si],ah
000015CC  2020              and [bx+si],ah
000015CE  2020              and [bx+si],ah
000015D0  2020              and [bx+si],ah
000015D2  54                push sp
000015D3  49                dec cx
000015D4  4D                dec bp
000015D5  45                inc bp
000015D6  4F                dec di
000015D7  55                push bp
000015D8  54                push sp
000015D9  204552            and [di+0x52],al
000015DC  52                push dx
000015DD  4F                dec di
000015DE  52                push dx
000015DF  2120              and [bx+si],sp
000015E1  4E                dec si
000015E2  4F                dec di
000015E3  204348            and [bp+di+0x48],al
000015E6  41                inc cx
000015E7  52                push dx
000015E8  41                inc cx
000015E9  43                inc bx
000015EA  54                push sp
000015EB  45                inc bp
000015EC  52                push dx
000015ED  205452            and [si+0x52],dl
000015F0  41                inc cx
000015F1  4E                dec si
000015F2  53                push bx
000015F3  4D                dec bp
000015F4  49                dec cx
000015F5  54                push sp
000015F6  54                push sp
000015F7  45                inc bp
000015F8  44                inc sp
000015F9  2020              and [bx+si],ah
000015FB  2020              and [bx+si],ah
000015FD  2020              and [bx+si],ah
000015FF  00062020          add [0x2020],al
00001603  2020              and [bx+si],ah
00001605  2020              and [bx+si],ah
00001607  2020              and [bx+si],ah
00001609  2020              and [bx+si],ah
0000160B  2020              and [bx+si],ah
0000160D  2020              and [bx+si],ah
0000160F  2020              and [bx+si],ah
00001611  2020              and [bx+si],ah
00001613  2020              and [bx+si],ah
00001615  205449            and [si+0x49],dl
00001618  4D                dec bp
00001619  45                inc bp
0000161A  4F                dec di
0000161B  55                push bp
0000161C  54                push sp
0000161D  204552            and [di+0x52],al
00001620  52                push dx
00001621  4F                dec di
00001622  52                push dx
00001623  2120              and [bx+si],sp
00001625  204E4F            and [bp+0x4f],cl
00001628  204348            and [bp+di+0x48],al
0000162B  41                inc cx
0000162C  52                push dx
0000162D  41                inc cx
0000162E  43                inc bx
0000162F  54                push sp
00001630  45                inc bp
00001631  52                push dx
00001632  205245            and [bp+si+0x45],dl
00001635  43                inc bx
00001636  45                inc bp
00001637  49                dec cx
00001638  56                push si
00001639  45                inc bp
0000163A  44                inc sp
0000163B  2020              and [bx+si],ah
0000163D  2020              and [bx+si],ah
0000163F  2020              and [bx+si],ah
00001641  2000              and [bx+si],al
00001643  06                push es
00001644  2020              and [bx+si],ah
00001646  2020              and [bx+si],ah
00001648  2020              and [bx+si],ah
0000164A  2020              and [bx+si],ah
0000164C  2020              and [bx+si],ah
0000164E  2020              and [bx+si],ah
00001650  2020              and [bx+si],ah
00001652  2020              and [bx+si],ah
00001654  2020              and [bx+si],ah
00001656  2020              and [bx+si],ah
00001658  2020              and [bx+si],ah
0000165A  2020              and [bx+si],ah
0000165C  2020              and [bx+si],ah
0000165E  204252            and [bp+si+0x52],al
00001661  45                inc bp
00001662  41                inc cx
00001663  4B                dec bx
00001664  204552            and [di+0x52],al
00001667  52                push dx
00001668  4F                dec di
00001669  52                push dx
0000166A  2020              and [bx+si],ah
0000166C  48                dec ax
0000166D  41                inc cx
0000166E  53                push bx
0000166F  204F43            and [bx+0x43],cl
00001672  43                inc bx
00001673  55                push bp
00001674  52                push dx
00001675  52                push dx
00001676  45                inc bp
00001677  44                inc sp
00001678  2020              and [bx+si],ah
0000167A  2020              and [bx+si],ah
0000167C  2020              and [bx+si],ah
0000167E  2020              and [bx+si],ah
00001680  2020              and [bx+si],ah
00001682  2020              and [bx+si],ah
00001684  2000              and [bx+si],al
00001686  06                push es
00001687  2020              and [bx+si],ah
00001689  2020              and [bx+si],ah
0000168B  2020              and [bx+si],ah
0000168D  2020              and [bx+si],ah
0000168F  2020              and [bx+si],ah
00001691  2020              and [bx+si],ah
00001693  2020              and [bx+si],ah
00001695  2020              and [bx+si],ah
00001697  2020              and [bx+si],ah
00001699  2020              and [bx+si],ah
0000169B  2020              and [bx+si],ah
0000169D  2020              and [bx+si],ah
0000169F  2020              and [bx+si],ah
000016A1  46                inc si
000016A2  52                push dx
000016A3  41                inc cx
000016A4  4D                dec bp
000016A5  49                dec cx
000016A6  4E                dec si
000016A7  47                inc di
000016A8  204552            and [di+0x52],al
000016AB  52                push dx
000016AC  4F                dec di
000016AD  52                push dx
000016AE  2020              and [bx+si],ah
000016B0  48                dec ax
000016B1  41                inc cx
000016B2  53                push bx
000016B3  204F43            and [bx+0x43],cl
000016B6  43                inc bx
000016B7  55                push bp
000016B8  52                push dx
000016B9  52                push dx
000016BA  45                inc bp
000016BB  44                inc sp
000016BC  2020              and [bx+si],ah
000016BE  2020              and [bx+si],ah
000016C0  2020              and [bx+si],ah
000016C2  2020              and [bx+si],ah
000016C4  2020              and [bx+si],ah
000016C6  2020              and [bx+si],ah
000016C8  00062020          add [0x2020],al
000016CC  2020              and [bx+si],ah
000016CE  2020              and [bx+si],ah
000016D0  2020              and [bx+si],ah
000016D2  2020              and [bx+si],ah
000016D4  2020              and [bx+si],ah
000016D6  2020              and [bx+si],ah
000016D8  2020              and [bx+si],ah
000016DA  2020              and [bx+si],ah
000016DC  2020              and [bx+si],ah
000016DE  2020              and [bx+si],ah
000016E0  2020              and [bx+si],ah
000016E2  2020              and [bx+si],ah
000016E4  205041            and [bx+si+0x41],dl
000016E7  52                push dx
000016E8  49                dec cx
000016E9  54                push sp
000016EA  59                pop cx
000016EB  204552            and [di+0x52],al
000016EE  52                push dx
000016EF  4F                dec di
000016F0  52                push dx
000016F1  204841            and [bx+si+0x41],cl
000016F4  53                push bx
000016F5  204F43            and [bx+0x43],cl
000016F8  43                inc bx
000016F9  55                push bp
000016FA  52                push dx
000016FB  52                push dx
000016FC  45                inc bp
000016FD  44                inc sp
000016FE  2020              and [bx+si],ah
00001700  2020              and [bx+si],ah
00001702  2020              and [bx+si],ah
00001704  2020              and [bx+si],ah
00001706  2020              and [bx+si],ah
00001708  2020              and [bx+si],ah
0000170A  2000              and [bx+si],al
0000170C  06                push es
0000170D  2020              and [bx+si],ah
0000170F  2020              and [bx+si],ah
00001711  2020              and [bx+si],ah
00001713  2020              and [bx+si],ah
00001715  2020              and [bx+si],ah
00001717  2020              and [bx+si],ah
00001719  2020              and [bx+si],ah
0000171B  2020              and [bx+si],ah
0000171D  2020              and [bx+si],ah
0000171F  2020              and [bx+si],ah
00001721  2020              and [bx+si],ah
00001723  2020              and [bx+si],ah
00001725  2020              and [bx+si],ah
00001727  204F56            and [bx+0x56],cl
0000172A  45                inc bp
0000172B  52                push dx
0000172C  52                push dx
0000172D  55                push bp
0000172E  4E                dec si
0000172F  204552            and [di+0x52],al
00001732  52                push dx
00001733  4F                dec di
00001734  52                push dx
00001735  204841            and [bx+si+0x41],cl
00001738  53                push bx
00001739  204F43            and [bx+0x43],cl
0000173C  43                inc bx
0000173D  55                push bp
0000173E  52                push dx
0000173F  52                push dx
00001740  45                inc bp
00001741  44                inc sp
00001742  2020              and [bx+si],ah
00001744  2020              and [bx+si],ah
00001746  2020              and [bx+si],ah
00001748  2020              and [bx+si],ah
0000174A  2020              and [bx+si],ah
0000174C  2020              and [bx+si],ah
0000174E  00062020          add [0x2020],al
00001752  2020              and [bx+si],ah
00001754  2020              and [bx+si],ah
00001756  2020              and [bx+si],ah
00001758  2020              and [bx+si],ah
0000175A  2020              and [bx+si],ah
0000175C  2020              and [bx+si],ah
0000175E  52                push dx
0000175F  45                inc bp
00001760  43                inc bx
00001761  45                inc bp
00001762  49                dec cx
00001763  56                push si
00001764  45                inc bp
00001765  44                inc sp
00001766  204348            and [bp+di+0x48],al
00001769  41                inc cx
0000176A  52                push dx
0000176B  41                inc cx
0000176C  43                inc bx
0000176D  54                push sp
0000176E  45                inc bp
0000176F  52                push dx
00001770  20414E            and [bx+di+0x4e],al
00001773  44                inc sp
00001774  205452            and [si+0x52],dl
00001777  41                inc cx
00001778  4E                dec si
00001779  53                push bx
0000177A  4D                dec bp
0000177B  49                dec cx
0000177C  54                push sp
0000177D  54                push sp
0000177E  45                inc bp
0000177F  44                inc sp
00001780  204348            and [bp+di+0x48],al
00001783  41                inc cx
00001784  52                push dx
00001785  41                inc cx
00001786  43                inc bx
00001787  54                push sp
00001788  45                inc bp
00001789  52                push dx
0000178A  204449            and [si+0x49],al
0000178D  46                inc si
0000178E  46                inc si
0000178F  45                inc bp
00001790  52                push dx
00001791  00062020          add [0x2020],al
00001795  2020              and [bx+si],ah
00001797  2020              and [bx+si],ah
00001799  2020              and [bx+si],ah
0000179B  2020              and [bx+si],ah
0000179D  2020              and [bx+si],ah
0000179F  2020              and [bx+si],ah
000017A1  2020              and [bx+si],ah
000017A3  204F55            and [bx+0x55],cl
000017A6  54                push sp
000017A7  50                push ax
000017A8  55                push bp
000017A9  54                push sp
000017AA  205349            and [bp+di+0x49],dl
000017AD  47                inc di
000017AE  4E                dec si
000017AF  41                inc cx
000017B0  4C                dec sp
000017B1  53                push bx
000017B2  20414E            and [bx+di+0x4e],al
000017B5  44                inc sp
000017B6  20494E            and [bx+di+0x4e],cl
000017B9  50                push ax
000017BA  55                push bp
000017BB  54                push sp
000017BC  205349            and [bp+di+0x49],dl
000017BF  47                inc di
000017C0  4E                dec si
000017C1  41                inc cx
000017C2  4C                dec sp
000017C3  53                push bx
000017C4  20444F            and [si+0x4f],al
000017C7  204E4F            and [bp+0x4f],cl
000017CA  54                push sp
000017CB  204D41            and [di+0x41],cl
000017CE  54                push sp
000017CF  43                inc bx
000017D0  48                dec ax
000017D1  2020              and [bx+si],ah
000017D3  2000              and [bx+si],al
000017D5  0A20              or ah,[bx+si]
000017D7  2020              and [bx+si],ah
000017D9  2020              and [bx+si],ah
000017DB  2020              and [bx+si],ah
000017DD  2020              and [bx+si],ah
000017DF  2020              and [bx+si],ah
000017E1  2020              and [bx+si],ah
000017E3  2020              and [bx+si],ah
000017E5  2020              and [bx+si],ah
000017E7  2020              and [bx+si],ah
000017E9  54                push sp
000017EA  48                dec ax
000017EB  45                inc bp
000017EC  52                push dx
000017ED  45                inc bp
000017EE  205745            and [bx+0x45],dl
000017F1  52                push dx
000017F2  45                inc bp
000017F3  204E4F            and [bp+0x4f],cl
000017F6  204552            and [di+0x52],al
000017F9  52                push dx
000017FA  4F                dec di
000017FB  52                push dx
000017FC  53                push bx
000017FD  20454E            and [di+0x4e],al
00001800  43                inc bx
00001801  4F                dec di
00001802  55                push bp
00001803  4E                dec si
00001804  54                push sp
00001805  45                inc bp
00001806  52                push dx
00001807  45                inc bp
00001808  44                inc sp
00001809  20494E            and [bx+di+0x4e],cl
0000180C  205445            and [si+0x45],dl
0000180F  53                push bx
00001810  54                push sp
00001811  2020              and [bx+si],ah
00001813  2020              and [bx+si],ah
00001815  2020              and [bx+si],ah
00001817  0000              add [bx+si],al
00001819  0000              add [bx+si],al
0000181B  0006FA33          add [0x33fa],al
0000181F  C08EC0B8F0        ror byte [bp-0x4740],byte 0xf0
00001824  48                dec ax
00001825  26A37000          mov [es:0x70],ax
00001829  FB                sti
0000182A  B40F              mov ah,0xf
0000182C  CD10              int 0x10
0000182E  50                push ax
0000182F  B84000            mov ax,0x40
00001832  8EC0              mov es,ax
00001834  26A11000          mov ax,[es:0x10]
00001838  50                push ax
00001839  A90001            test ax,0x100
0000183C  7405              jz 0x1843
0000183E  C606BB2602        mov byte [0x26bb],0x2
00001843  26FF366300        push word [es:0x63]
00001848  E8F62F            call 0x4841
0000184B  BF9852            mov di,0x5298
0000184E  E8702F            call 0x47c1
00001851  E8FB2F            call 0x484f
00001854  C606085000        mov byte [0x5008],0x0
00001859  C606095002        mov byte [0x5009],0x2
0000185E  BF991E            mov di,0x1e99
00001861  E8F02E            call 0x4754
00001864  E8EF2F            call 0x4856
00001867  E8F32F            call 0x485d
0000186A  E80C30            call 0x4879
0000186D  FE060A50          inc byte [0x500a]
00001871  F6060A5001        test byte [0x500a],0x1
00001876  7424              jz 0x189c
00001878  B84000            mov ax,0x40
0000187B  8EC0              mov es,ax
0000187D  26813E6300B403    cmp word [es:0x63],0x3b4
00001884  7413              jz 0x1899
00001886  26C7066300B403    mov word [es:0x63],0x3b4
0000188D  8036BB2602        xor byte [0x26bb],0x2
00001892  A0BB26            mov al,[0x26bb]
00001895  BADD03            mov dx,0x3dd
00001898  EE                out dx,al
00001899  E8AB00            call 0x1947
0000189C  F6060A5002        test byte [0x500a],0x2
000018A1  7424              jz 0x18c7
000018A3  B84000            mov ax,0x40
000018A6  8EC0              mov es,ax
000018A8  26813E6300D403    cmp word [es:0x63],0x3d4
000018AF  7413              jz 0x18c4
000018B1  26C7066300D403    mov word [es:0x63],0x3d4
000018B8  8036BB2602        xor byte [0x26bb],0x2
000018BD  A0BB26            mov al,[0x26bb]
000018C0  BABD03            mov dx,0x3bd
000018C3  EE                out dx,al
000018C4  E83001            call 0x19f7
000018C7  B84000            mov ax,0x40
000018CA  8EC0              mov es,ax
000018CC  268B166300        mov dx,[es:0x63]
000018D1  83C209            add dx,byte +0x9
000018D4  268F066300        pop word [es:0x63]
000018D9  58                pop ax
000018DA  26A31000          mov [es:0x10],ax
000018DE  A90001            test ax,0x100
000018E1  B000              mov al,0x0
000018E3  7402              jz 0x18e7
000018E5  B002              mov al,0x2
000018E7  EE                out dx,al
000018E8  C606BB2600        mov byte [0x26bb],0x0
000018ED  58                pop ax
000018EE  32E4              xor ah,ah
000018F0  CD10              int 0x10
000018F2  A0E94F            mov al,[0x4fe9]
000018F5  B405              mov ah,0x5
000018F7  CD10              int 0x10
000018F9  B401              mov ah,0x1
000018FB  B90020            mov cx,0x2000
000018FE  CD10              int 0x10
00001900  FA                cli
00001901  33C0              xor ax,ax
00001903  8EC0              mov es,ax
00001905  B8F148            mov ax,0x48f1
00001908  26A37000          mov [es:0x70],ax
0000190C  FB                sti
0000190D  E82E2E            call 0x473e
00001910  33D2              xor dx,dx
00001912  E8362E            call 0x474b
00001915  BF9F49            mov di,0x499f
00001918  E8392E            call 0x4754
0000191B  BFF549            mov di,0x49f5
0000191E  E8332E            call 0x4754
00001921  BF474A            mov di,0x4a47
00001924  E82D2E            call 0x4754
00001927  BFF549            mov di,0x49f5
0000192A  E8272E            call 0x4754
0000192D  BA0015            mov dx,0x1500
00001930  E8182E            call 0x474b
00001933  BFF549            mov di,0x49f5
00001936  E81B2E            call 0x4754
00001939  BA0018            mov dx,0x1800
0000193C  E80C2E            call 0x474b
0000193F  BFF549            mov di,0x49f5
00001942  E80F2E            call 0x4754
00001945  07                pop es
00001946  C3                ret
00001947  26810E10003000    or word [es:0x10],0x30
0000194E  B80700            mov ax,0x7
00001951  CD10              int 0x10
00001953  B401              mov ah,0x1
00001955  B90020            mov cx,0x2000
00001958  CD10              int 0x10
0000195A  E86803            call 0x1cc5
0000195D  E8CD03            call 0x1d2d
00001960  E8BA03            call 0x1d1d
00001963  E8D82D            call 0x473e
00001966  BA0002            mov dx,0x200
00001969  E8DF2D            call 0x474b
0000196C  BFF11F            mov di,0x1ff1
0000196F  E8E22D            call 0x4754
00001972  E8A803            call 0x1d1d
00001975  E81D04            call 0x1d95
00001978  E8C32D            call 0x473e
0000197B  BAB803            mov dx,0x3b8
0000197E  B00A              mov al,0xa
00001980  EE                out dx,al
00001981  B91000            mov cx,0x10
00001984  32DB              xor bl,bl
00001986  BFBE26            mov di,0x26be
00001989  BAB403            mov dx,0x3b4
0000198C  8AC3              mov al,bl
0000198E  EE                out dx,al
0000198F  42                inc dx
00001990  8A05              mov al,[di]
00001992  EE                out dx,al
00001993  47                inc di
00001994  FEC3              inc bl
00001996  E2F1              loop 0x1989
00001998  B800B0            mov ax,0xb000
0000199B  8EC0              mov es,ax
0000199D  33C0              xor ax,ax
0000199F  33FF              xor di,di
000019A1  B90080            mov cx,0x8000
000019A4  FC                cld
000019A5  F3AB              rep stosw
000019A7  BD8403            mov bp,0x384
000019AA  B91801            mov cx,0x118
000019AD  B8FF00            mov ax,0xff
000019B0  E80E04            call 0x1dc1
000019B3  BDD809            mov bp,0x9d8
000019B6  B9A800            mov cx,0xa8
000019B9  B800FF            mov ax,0xff00
000019BC  E80204            call 0x1dc1
000019BF  BDD20F            mov bp,0xfd2
000019C2  B93800            mov cx,0x38
000019C5  B8FF00            mov ax,0xff
000019C8  E8F603            call 0x1dc1
000019CB  B800B0            mov ax,0xb000
000019CE  8EC0              mov es,ax
000019D0  BECE26            mov si,0x26ce
000019D3  8B2C              mov bp,[si]
000019D5  BF7300            mov di,0x73
000019D8  B90200            mov cx,0x2
000019DB  E82E04            call 0x1e0c
000019DE  46                inc si
000019DF  46                inc si
000019E0  47                inc di
000019E1  47                inc di
000019E2  8B2C              mov bp,[si]
000019E4  83FD00            cmp bp,byte +0x0
000019E7  75F2              jnz 0x19db
000019E9  BEF626            mov si,0x26f6
000019EC  8B2C              mov bp,[si]
000019EE  BF501D            mov di,0x1d50
000019F1  E2E8              loop 0x19db
000019F3  E8E62D            call 0x47dc
000019F6  C3                ret
000019F7  26810E10002000    or word [es:0x10],0x20
000019FE  2681261000EFFF    and word [es:0x10],0xffef
00001A05  B80300            mov ax,0x3
00001A08  CD10              int 0x10
00001A0A  B401              mov ah,0x1
00001A0C  B90020            mov cx,0x2000
00001A0F  CD10              int 0x10
00001A11  E8B102            call 0x1cc5
00001A14  E81603            call 0x1d2d
00001A17  E80303            call 0x1d1d
00001A1A  E8212D            call 0x473e
00001A1D  BA2300            mov dx,0x23
00001A20  E8282D            call 0x474b
00001A23  BFF622            mov di,0x22f6
00001A26  E82B2D            call 0x4754
00001A29  B90800            mov cx,0x8
00001A2C  51                push cx
00001A2D  8AD9              mov bl,cl
00001A2F  FECB              dec bl
00001A31  D0E1              shl cl,1
00001A33  80C102            add cl,0x2
00001A36  8AF1              mov dh,cl
00001A38  B20B              mov dl,0xb
00001A3A  E80E2D            call 0x474b
00001A3D  B8DB09            mov ax,0x9db
00001A40  32FF              xor bh,bh
00001A42  B91400            mov cx,0x14
00001A45  CD10              int 0x10
00001A47  59                pop cx
00001A48  51                push cx
00001A49  8AD9              mov bl,cl
00001A4B  FECB              dec bl
00001A4D  80C308            add bl,0x8
00001A50  D1E1              shl cx,1
00001A52  83C102            add cx,byte +0x2
00001A55  8AF1              mov dh,cl
00001A57  B234              mov dl,0x34
00001A59  E8EF2C            call 0x474b
00001A5C  B8DB09            mov ax,0x9db
00001A5F  32FF              xor bh,bh
00001A61  B91400            mov cx,0x14
00001A64  CD10              int 0x10
00001A66  59                pop cx
00001A67  E2C3              loop 0x1a2c
00001A69  BA0003            mov dx,0x300
00001A6C  E8DC2C            call 0x474b
00001A6F  BF0223            mov di,0x2302
00001A72  E8DF2C            call 0x4754
00001A75  E8A502            call 0x1d1d
00001A78  E81A03            call 0x1d95
00001A7B  E8C02C            call 0x473e
00001A7E  BA1D03            mov dx,0x31d
00001A81  E8C72C            call 0x474b
00001A84  BFFD24            mov di,0x24fd
00001A87  E8CA2C            call 0x4754
00001A8A  E89002            call 0x1d1d
00001A8D  E8AE2C            call 0x473e
00001A90  B90400            mov cx,0x4
00001A93  BEA03F            mov si,0x3fa0
00001A96  51                push cx
00001A97  49                dec cx
00001A98  8AF9              mov bh,cl
00001A9A  B90200            mov cx,0x2
00001A9D  E89C03            call 0x1e3c
00001AA0  83EE60            sub si,byte +0x60
00001AA3  59                pop cx
00001AA4  E2F0              loop 0x1a96
00001AA6  32C0              xor al,al
00001AA8  50                push ax
00001AA9  B405              mov ah,0x5
00001AAB  CD10              int 0x10
00001AAD  B80300            mov ax,0x3
00001AB0  B9FFFF            mov cx,0xffff
00001AB3  E2FE              loop 0x1ab3
00001AB5  E2FE              loop 0x1ab5
00001AB7  48                dec ax
00001AB8  75F9              jnz 0x1ab3
00001ABA  58                pop ax
00001ABB  FEC0              inc al
00001ABD  3C04              cmp al,0x4
00001ABF  75E7              jnz 0x1aa8
00001AC1  B80100            mov ax,0x1
00001AC4  CD10              int 0x10
00001AC6  B401              mov ah,0x1
00001AC8  B90020            mov cx,0x2000
00001ACB  CD10              int 0x10
00001ACD  E89E03            call 0x1e6e
00001AD0  E84402            call 0x1d17
00001AD3  E8682C            call 0x473e
00001AD6  BA0903            mov dx,0x309
00001AD9  E86F2C            call 0x474b
00001ADC  BF5625            mov di,0x2556
00001ADF  E8722C            call 0x4754
00001AE2  E83202            call 0x1d17
00001AE5  E8562C            call 0x473e
00001AE8  B90800            mov cx,0x8
00001AEB  BED03F            mov si,0x3fd0
00001AEE  51                push cx
00001AEF  49                dec cx
00001AF0  8AF9              mov bh,cl
00001AF2  B90100            mov cx,0x1
00001AF5  E84403            call 0x1e3c
00001AF8  83EE30            sub si,byte +0x30
00001AFB  59                pop cx
00001AFC  E2F0              loop 0x1aee
00001AFE  32C0              xor al,al
00001B00  50                push ax
00001B01  B405              mov ah,0x5
00001B03  CD10              int 0x10
00001B05  B80300            mov ax,0x3
00001B08  B9FFFF            mov cx,0xffff
00001B0B  E2FE              loop 0x1b0b
00001B0D  E2FE              loop 0x1b0d
00001B0F  48                dec ax
00001B10  75F9              jnz 0x1b0b
00001B12  58                pop ax
00001B13  FEC0              inc al
00001B15  3C08              cmp al,0x8
00001B17  75E7              jnz 0x1b00
00001B19  E8222C            call 0x473e
00001B1C  B80400            mov ax,0x4
00001B1F  CD10              int 0x10
00001B21  BAD903            mov dx,0x3d9
00001B24  B030              mov al,0x30
00001B26  EE                out dx,al
00001B27  BB0200            mov bx,0x2
00001B2A  B800B8            mov ax,0xb800
00001B2D  8EC0              mov es,ax
00001B2F  33C0              xor ax,ax
00001B31  B9E803            mov cx,0x3e8
00001B34  33FF              xor di,di
00001B36  F3AB              rep stosw
00001B38  B85555            mov ax,0x5555
00001B3B  B9E803            mov cx,0x3e8
00001B3E  BFD007            mov di,0x7d0
00001B41  F3AB              rep stosw
00001B43  B8AAAA            mov ax,0xaaaa
00001B46  B9E803            mov cx,0x3e8
00001B49  BFA00F            mov di,0xfa0
00001B4C  F3AB              rep stosw
00001B4E  B8FFFF            mov ax,0xffff
00001B51  B9E803            mov cx,0x3e8
00001B54  BF7017            mov di,0x1770
00001B57  F3AB              rep stosw
00001B59  B800BA            mov ax,0xba00
00001B5C  8EC0              mov es,ax
00001B5E  4B                dec bx
00001B5F  75CE              jnz 0x1b2f
00001B61  BA0800            mov dx,0x8
00001B64  E8E42B            call 0x474b
00001B67  BF6D25            mov di,0x256d
00001B6A  E8E72B            call 0x4754
00001B6D  BE8625            mov si,0x2586
00001B70  B90400            mov cx,0x4
00001B73  8AC1              mov al,cl
00001B75  FEC8              dec al
00001B77  D0E0              shl al,1
00001B79  D0E0              shl al,1
00001B7B  D0E0              shl al,1
00001B7D  D0E0              shl al,1
00001B7F  BAD903            mov dx,0x3d9
00001B82  EE                out dx,al
00001B83  BA0D03            mov dx,0x30d
00001B86  E8C22B            call 0x474b
00001B89  8BFE              mov di,si
00001B8B  E8C62B            call 0x4754
00001B8E  83C60F            add si,byte +0xf
00001B91  BA0D09            mov dx,0x90d
00001B94  E8B42B            call 0x474b
00001B97  8BFE              mov di,si
00001B99  E8B82B            call 0x4754
00001B9C  83C60F            add si,byte +0xf
00001B9F  BA0D0F            mov dx,0xf0d
00001BA2  E8A62B            call 0x474b
00001BA5  8BFE              mov di,si
00001BA7  E8AA2B            call 0x4754
00001BAA  83C60F            add si,byte +0xf
00001BAD  BA0D15            mov dx,0x150d
00001BB0  E8982B            call 0x474b
00001BB3  8BFE              mov di,si
00001BB5  E89C2B            call 0x4754
00001BB8  83C60F            add si,byte +0xf
00001BBB  E85901            call 0x1d17
00001BBE  E2B3              loop 0x1b73
00001BC0  B80600            mov ax,0x6
00001BC3  CD10              int 0x10
00001BC5  BAD903            mov dx,0x3d9
00001BC8  B00F              mov al,0xf
00001BCA  EE                out dx,al
00001BCB  BB0200            mov bx,0x2
00001BCE  B800B8            mov ax,0xb800
00001BD1  8EC0              mov es,ax
00001BD3  33C0              xor ax,ax
00001BD5  B9D007            mov cx,0x7d0
00001BD8  33FF              xor di,di
00001BDA  F3AB              rep stosw
00001BDC  B8FFFF            mov ax,0xffff
00001BDF  B9D007            mov cx,0x7d0
00001BE2  BFA00F            mov di,0xfa0
00001BE5  F3AB              rep stosw
00001BE7  B800BA            mov ax,0xba00
00001BEA  8EC0              mov es,ax
00001BEC  4B                dec bx
00001BED  75E4              jnz 0x1bd3
00001BEF  BA2106            mov dx,0x621
00001BF2  E8562B            call 0x474b
00001BF5  BF8625            mov di,0x2586
00001BF8  E8592B            call 0x4754
00001BFB  BA2112            mov dx,0x1221
00001BFE  E84A2B            call 0x474b
00001C01  BFB325            mov di,0x25b3
00001C04  E84D2B            call 0x4754
00001C07  BA1800            mov dx,0x18
00001C0A  E83E2B            call 0x474b
00001C0D  BF7626            mov di,0x2676
00001C10  E8412B            call 0x4754
00001C13  E80701            call 0x1d1d
00001C16  B800B0            mov ax,0xb000
00001C19  8EC0              mov es,ax
00001C1B  33FF              xor di,di
00001C1D  33C0              xor ax,ax
00001C1F  B90080            mov cx,0x8000
00001C22  FC                cld
00001C23  F3AB              rep stosw
00001C25  BADD03            mov dx,0x3dd
00001C28  A0BB26            mov al,[0x26bb]
00001C2B  0C08              or al,0x8
00001C2D  EE                out dx,al
00001C2E  BAD803            mov dx,0x3d8
00001C31  B01A              mov al,0x1a
00001C33  EE                out dx,al
00001C34  42                inc dx
00001C35  32C0              xor al,al
00001C37  EE                out dx,al
00001C38  BF2003            mov di,0x320
00001C3B  B0FF              mov al,0xff
00001C3D  B90F00            mov cx,0xf
00001C40  B301              mov bl,0x1
00001C42  51                push cx
00001C43  F6C301            test bl,0x1
00001C46  7414              jz 0x1c5c
00001C48  B9E001            mov cx,0x1e0
00001C4B  2688850040        mov [es:di+0x4000],al
00001C50  2688850060        mov [es:di+0x6000],al
00001C55  47                inc di
00001C56  E2F3              loop 0x1c4b
00001C58  81EFE001          sub di,0x1e0
00001C5C  F6C302            test bl,0x2
00001C5F  7414              jz 0x1c75
00001C61  B9E001            mov cx,0x1e0
00001C64  2688850080        mov [es:di-0x8000],al
00001C69  26888500A0        mov [es:di-0x6000],al
00001C6E  47                inc di
00001C6F  E2F3              loop 0x1c64
00001C71  81EFE001          sub di,0x1e0
00001C75  F6C304            test bl,0x4
00001C78  7414              jz 0x1c8e
00001C7A  B9E001            mov cx,0x1e0
00001C7D  26888500C0        mov [es:di-0x4000],al
00001C82  26888500E0        mov [es:di-0x2000],al
00001C87  47                inc di
00001C88  E2F3              loop 0x1c7d
00001C8A  81EFE001          sub di,0x1e0
00001C8E  F6C308            test bl,0x8
00001C91  7412              jz 0x1ca5
00001C93  B9E001            mov cx,0x1e0
00001C96  268805            mov [es:di],al
00001C99  2688850020        mov [es:di+0x2000],al
00001C9E  47                inc di
00001C9F  E2F5              loop 0x1c96
00001CA1  81EFE001          sub di,0x1e0
00001CA5  81C7E001          add di,0x1e0
00001CA9  FEC3              inc bl
00001CAB  59                pop cx
00001CAC  E294              loop 0x1c42
00001CAE  BA1800            mov dx,0x18
00001CB1  E8972A            call 0x474b
00001CB4  BF9826            mov di,0x2698
00001CB7  E89A2A            call 0x4754
00001CBA  E86000            call 0x1d1d
00001CBD  BADD03            mov dx,0x3dd
00001CC0  A0BB26            mov al,[0x26bb]
00001CC3  EE                out dx,al
00001CC4  C3                ret
00001CC5  B800B0            mov ax,0xb000
00001CC8  8EC0              mov es,ax
00001CCA  B90080            mov cx,0x8000
00001CCD  B85555            mov ax,0x5555
00001CD0  33FF              xor di,di
00001CD2  FC                cld
00001CD3  F3AB              rep stosw
00001CD5  B90080            mov cx,0x8000
00001CD8  263905            cmp [es:di],ax
00001CDB  7532              jnz 0x1d0f
00001CDD  47                inc di
00001CDE  47                inc di
00001CDF  E2F7              loop 0x1cd8
00001CE1  B8AAAA            mov ax,0xaaaa
00001CE4  B90080            mov cx,0x8000
00001CE7  F3AB              rep stosw
00001CE9  B90080            mov cx,0x8000
00001CEC  263905            cmp [es:di],ax
00001CEF  751E              jnz 0x1d0f
00001CF1  47                inc di
00001CF2  47                inc di
00001CF3  E2F7              loop 0x1cec
00001CF5  BE841F            mov si,0x1f84
00001CF8  B90080            mov cx,0x8000
00001CFB  B82007            mov ax,0x720
00001CFE  F3AB              rep stosw
00001D00  BA1B05            mov dx,0x51b
00001D03  E8452A            call 0x474b
00001D06  8BFE              mov di,si
00001D08  E8492A            call 0x4754
00001D0B  E80F00            call 0x1d1d
00001D0E  C3                ret
00001D0F  33FF              xor di,di
00001D11  BEA11F            mov si,0x1fa1
00001D14  58                pop ax
00001D15  EBE1              jmp short 0x1cf8
00001D17  BA0818            mov dx,0x1808
00001D1A  EB04              jmp short 0x1d20
00001D1C  90                nop
00001D1D  BA1B18            mov dx,0x181b
00001D20  E8282A            call 0x474b
00001D23  BFD81F            mov di,0x1fd8
00001D26  E82B2A            call 0x4754
00001D29  E8B02A            call 0x47dc
00001D2C  C3                ret
00001D2D  BA1C01            mov dx,0x11c
00001D30  E8182A            call 0x474b
00001D33  BFBE1F            mov di,0x1fbe
00001D36  E81B2A            call 0x4754
00001D39  BA0803            mov dx,0x308
00001D3C  E80C2A            call 0x474b
00001D3F  C606BC2602        mov byte [0x26bc],0x2
00001D44  C606BD2608        mov byte [0x26bd],0x8
00001D49  32FF              xor bh,bh
00001D4B  B30E              mov bl,0xe
00001D4D  32C0              xor al,al
00001D4F  B92000            mov cx,0x20
00001D52  E80300            call 0x1d58
00001D55  75F8              jnz 0x1d4f
00001D57  C3                ret
00001D58  51                push cx
00001D59  50                push ax
00001D5A  B409              mov ah,0x9
00001D5C  B90100            mov cx,0x1
00001D5F  CD10              int 0x10
00001D61  B403              mov ah,0x3
00001D63  CD10              int 0x10
00001D65  FEC2              inc dl
00001D67  E8E129            call 0x474b
00001D6A  B82009            mov ax,0x920
00001D6D  B90100            mov cx,0x1
00001D70  CD10              int 0x10
00001D72  B403              mov ah,0x3
00001D74  CD10              int 0x10
00001D76  FEC2              inc dl
00001D78  E8D029            call 0x474b
00001D7B  58                pop ax
00001D7C  59                pop cx
00001D7D  FEC0              inc al
00001D7F  3C00              cmp al,0x0
00001D81  7411              jz 0x1d94
00001D83  E2D3              loop 0x1d58
00001D85  50                push ax
00001D86  0236BC26          add dh,[0x26bc]
00001D8A  8A16BD26          mov dl,[0x26bd]
00001D8E  E8BA29            call 0x474b
00001D91  58                pop ax
00001D92  3C00              cmp al,0x0
00001D94  C3                ret
00001D95  33D2              xor dx,dx
00001D97  E8B129            call 0x474b
00001D9A  B90500            mov cx,0x5
00001D9D  51                push cx
00001D9E  B90200            mov cx,0x2
00001DA1  BF5222            mov di,0x2252
00001DA4  E8AD29            call 0x4754
00001DA7  E2F8              loop 0x1da1
00001DA9  BFA422            mov di,0x22a4
00001DAC  E8A529            call 0x4754
00001DAF  B90200            mov cx,0x2
00001DB2  BF5222            mov di,0x2252
00001DB5  E89C29            call 0x4754
00001DB8  E2F8              loop 0x1db2
00001DBA  59                pop cx
00001DBB  E2E0              loop 0x1d9d
00001DBD  E85DFF            call 0x1d1d
00001DC0  C3                ret
00001DC1  BB00B0            mov bx,0xb000
00001DC4  8EC3              mov es,bx
00001DC6  8AD4              mov dl,ah
00001DC8  BF2C00            mov di,0x2c
00001DCB  BE2C00            mov si,0x2c
00001DCE  BB2D00            mov bx,0x2d
00001DD1  268813            mov [es:bp+di],dl
00001DD4  3BFB              cmp di,bx
00001DD6  7406              jz 0x1dde
00001DD8  47                inc di
00001DD9  268803            mov [es:bp+di],al
00001DDC  EBF6              jmp short 0x1dd4
00001DDE  268823            mov [es:bp+di],ah
00001DE1  50                push ax
00001DE2  8CC0              mov ax,es
00001DE4  050002            add ax,0x200
00001DE7  A90008            test ax,0x800
00001DEA  7406              jz 0x1df2
00001DEC  83C55A            add bp,byte +0x5a
00001DEF  25FFF7            and ax,0xf7ff
00001DF2  8EC0              mov es,ax
00001DF4  58                pop ax
00001DF5  3AD0              cmp dl,al
00001DF7  7506              jnz 0x1dff
00001DF9  F6D2              not dl
00001DFB  8AE2              mov ah,dl
00001DFD  4E                dec si
00001DFE  43                inc bx
00001DFF  D0C8              ror al,1
00001E01  D0D2              rcl dl,1
00001E03  D0C8              ror al,1
00001E05  D0DC              rcr ah,1
00001E07  8BFE              mov di,si
00001E09  E2C6              loop 0x1dd1
00001E0B  C3                ret
00001E0C  51                push cx
00001E0D  B90400            mov cx,0x4
00001E10  8B4600            mov ax,[bp+0x0]
00001E13  268905            mov [es:di],ax
00001E16  8B4602            mov ax,[bp+0x2]
00001E19  2689850020        mov [es:di+0x2000],ax
00001E1E  8B4604            mov ax,[bp+0x4]
00001E21  2689850040        mov [es:di+0x4000],ax
00001E26  8B4606            mov ax,[bp+0x6]
00001E29  2689850060        mov [es:di+0x6000],ax
00001E2E  83C75A            add di,byte +0x5a
00001E31  83C508            add bp,byte +0x8
00001E34  E2DA              loop 0x1e10
00001E36  81EF6801          sub di,0x168
00001E3A  59                pop cx
00001E3B  C3                ret
00001E3C  51                push cx
00001E3D  8AC7              mov al,bh
00001E3F  0430              add al,0x30
00001E41  A22225            mov [0x2522],al
00001E44  A23725            mov [0x2537],al
00001E47  BB00B8            mov bx,0xb800
00001E4A  8EC3              mov es,bx
00001E4C  B719              mov bh,0x19
00001E4E  51                push cx
00001E4F  B92800            mov cx,0x28
00001E52  BF3B25            mov di,0x253b
00001E55  8A05              mov al,[di]
00001E57  B407              mov ah,0x7
00001E59  268904            mov [es:si],ax
00001E5C  4F                dec di
00001E5D  4E                dec si
00001E5E  4E                dec si
00001E5F  E2F4              loop 0x1e55
00001E61  59                pop cx
00001E62  E2EA              loop 0x1e4e
00001E64  59                pop cx
00001E65  51                push cx
00001E66  FECF              dec bh
00001E68  7402              jz 0x1e6c
00001E6A  EBE2              jmp short 0x1e4e
00001E6C  59                pop cx
00001E6D  C3                ret
00001E6E  BA0801            mov dx,0x108
00001E71  E8D728            call 0x474b
00001E74  BF3C25            mov di,0x253c
00001E77  E8DA28            call 0x4754
00001E7A  BA0003            mov dx,0x300
00001E7D  E8CB28            call 0x474b
00001E80  C606BC2601        mov byte [0x26bc],0x1
00001E85  C606BD2600        mov byte [0x26bd],0x0
00001E8A  32FF              xor bh,bh
00001E8C  B30E              mov bl,0xe
00001E8E  32C0              xor al,al
00001E90  B91400            mov cx,0x14
00001E93  E8C2FE            call 0x1d58
00001E96  75F8              jnz 0x1e90
00001E98  C3                ret
00001E99  07                pop es
00001E9A  2020              and [bx+si],ah
00001E9C  2020              and [bx+si],ah
00001E9E  2020              and [bx+si],ah
00001EA0  2020              and [bx+si],ah
00001EA2  2020              and [bx+si],ah
00001EA4  2020              and [bx+si],ah
00001EA6  2020              and [bx+si],ah
00001EA8  2020              and [bx+si],ah
00001EAA  2020              and [bx+si],ah
00001EAC  2020              and [bx+si],ah
00001EAE  2020              and [bx+si],ah
00001EB0  2020              and [bx+si],ah
00001EB2  2020              and [bx+si],ah
00001EB4  2020              and [bx+si],ah
00001EB6  57                push di
00001EB7  48                dec ax
00001EB8  49                dec cx
00001EB9  43                inc bx
00001EBA  48                dec ax
00001EBB  20504F            and [bx+si+0x4f],dl
00001EBE  52                push dx
00001EBF  54                push sp
00001EC0  20574F            and [bx+0x4f],dl
00001EC3  55                push bp
00001EC4  4C                dec sp
00001EC5  44                inc sp
00001EC6  20594F            and [bx+di+0x4f],bl
00001EC9  55                push bp
00001ECA  204C49            and [si+0x49],cl
00001ECD  4B                dec bx
00001ECE  45                inc bp
00001ECF  20544F            and [si+0x4f],dl
00001ED2  205445            and [si+0x45],dl
00001ED5  53                push bx
00001ED6  54                push sp
00001ED7  3F                aas
00001ED8  0D0D20            or ax,0x200d
00001EDB  2020              and [bx+si],ah
00001EDD  2020              and [bx+si],ah
00001EDF  2020              and [bx+si],ah
00001EE1  2020              and [bx+si],ah
00001EE3  2020              and [bx+si],ah
00001EE5  2020              and [bx+si],ah
00001EE7  2020              and [bx+si],ah
00001EE9  2020              and [bx+si],ah
00001EEB  2020              and [bx+si],ah
00001EED  2020              and [bx+si],ah
00001EEF  2020              and [bx+si],ah
00001EF1  2020              and [bx+si],ah
00001EF3  2020              and [bx+si],ah
00001EF5  2020              and [bx+si],ah
00001EF7  2020              and [bx+si],ah
00001EF9  2020              and [bx+si],ah
00001EFB  2020              and [bx+si],ah
00001EFD  312D              xor [di],bp
00001EFF  2D2D2D            sub ax,0x2d2d
00001F02  2D2D2D            sub ax,0x2d2d
00001F05  4D                dec bp
00001F06  4F                dec di
00001F07  4E                dec si
00001F08  4F                dec di
00001F09  43                inc bx
00001F0A  48                dec ax
00001F0B  52                push dx
00001F0C  4F                dec di
00001F0D  4D                dec bp
00001F0E  45                inc bp
00001F0F  204F4E            and [bx+0x4e],cl
00001F12  4C                dec sp
00001F13  59                pop cx
00001F14  0D2020            or ax,0x2020
00001F17  2020              and [bx+si],ah
00001F19  2020              and [bx+si],ah
00001F1B  2020              and [bx+si],ah
00001F1D  2020              and [bx+si],ah
00001F1F  2020              and [bx+si],ah
00001F21  2020              and [bx+si],ah
00001F23  2020              and [bx+si],ah
00001F25  2020              and [bx+si],ah
00001F27  2020              and [bx+si],ah
00001F29  2020              and [bx+si],ah
00001F2B  2020              and [bx+si],ah
00001F2D  2020              and [bx+si],ah
00001F2F  2020              and [bx+si],ah
00001F31  2020              and [bx+si],ah
00001F33  2020              and [bx+si],ah
00001F35  2020              and [bx+si],ah
00001F37  2032              and [bp+si],dh
00001F39  2D2D2D            sub ax,0x2d2d
00001F3C  2D2D2D            sub ax,0x2d2d
00001F3F  2D434F            sub ax,0x4f43
00001F42  4C                dec sp
00001F43  4F                dec di
00001F44  52                push dx
00001F45  204F4E            and [bx+0x4e],cl
00001F48  4C                dec sp
00001F49  59                pop cx
00001F4A  0D2020            or ax,0x2020
00001F4D  2020              and [bx+si],ah
00001F4F  2020              and [bx+si],ah
00001F51  2020              and [bx+si],ah
00001F53  2020              and [bx+si],ah
00001F55  2020              and [bx+si],ah
00001F57  2020              and [bx+si],ah
00001F59  2020              and [bx+si],ah
00001F5B  2020              and [bx+si],ah
00001F5D  2020              and [bx+si],ah
00001F5F  2020              and [bx+si],ah
00001F61  2020              and [bx+si],ah
00001F63  2020              and [bx+si],ah
00001F65  2020              and [bx+si],ah
00001F67  2020              and [bx+si],ah
00001F69  2020              and [bx+si],ah
00001F6B  2020              and [bx+si],ah
00001F6D  2033              and [bp+di],dh
00001F6F  2D2D2D            sub ax,0x2d2d
00001F72  2D2D2D            sub ax,0x2d2d
00001F75  2D424F            sub ax,0x4f42
00001F78  54                push sp
00001F79  48                dec ax
00001F7A  204449            and [si+0x49],al
00001F7D  53                push bx
00001F7E  50                push ax
00001F7F  4C                dec sp
00001F80  41                inc cx
00001F81  59                pop cx
00001F82  53                push bx
00001F83  0007              add [bx],al
00001F85  53                push bx
00001F86  43                inc bx
00001F87  52                push dx
00001F88  45                inc bp
00001F89  45                inc bp
00001F8A  4E                dec si
00001F8B  204D45            and [di+0x45],cl
00001F8E  4D                dec bp
00001F8F  4F                dec di
00001F90  52                push dx
00001F91  59                pop cx
00001F92  205445            and [si+0x45],dl
00001F95  53                push bx
00001F96  54                push sp
00001F97  240A              and al,0xa
00001F99  205041            and [bx+si+0x41],dl
00001F9C  53                push bx
00001F9D  53                push bx
00001F9E  45                inc bp
00001F9F  44                inc sp
00001FA0  0007              add [bx],al
00001FA2  53                push bx
00001FA3  43                inc bx
00001FA4  52                push dx
00001FA5  45                inc bp
00001FA6  45                inc bp
00001FA7  4E                dec si
00001FA8  204D45            and [di+0x45],cl
00001FAB  4D                dec bp
00001FAC  4F                dec di
00001FAD  52                push dx
00001FAE  59                pop cx
00001FAF  205445            and [si+0x45],dl
00001FB2  53                push bx
00001FB3  54                push sp
00001FB4  240C              and al,0xc
00001FB6  204641            and [bp+0x41],al
00001FB9  49                dec cx
00001FBA  4C                dec sp
00001FBB  45                inc bp
00001FBC  44                inc sp
00001FBD  0003              add [bp+di],al
00001FBF  3830              cmp [bx+si],dh
00001FC1  20434F            and [bp+di+0x4f],al
00001FC4  4C                dec sp
00001FC5  55                push bp
00001FC6  4D                dec bp
00001FC7  4E                dec si
00001FC8  204348            and [bp+di+0x48],al
00001FCB  41                inc cx
00001FCC  52                push dx
00001FCD  41                inc cx
00001FCE  43                inc bx
00001FCF  54                push sp
00001FD0  45                inc bp
00001FD1  52                push dx
00001FD2  205445            and [si+0x45],dl
00001FD5  53                push bx
00001FD6  54                push sp
00001FD7  0007              add [bx],al
00001FD9  48                dec ax
00001FDA  49                dec cx
00001FDB  54                push sp
00001FDC  20414E            and [bx+di+0x4e],al
00001FDF  59                pop cx
00001FE0  204B45            and [bp+di+0x45],cl
00001FE3  59                pop cx
00001FE4  20544F            and [si+0x4f],dl
00001FE7  20434F            and [bp+di+0x4f],al
00001FEA  4E                dec si
00001FEB  54                push sp
00001FEC  49                dec cx
00001FED  4E                dec si
00001FEE  55                push bp
00001FEF  45                inc bp
00001FF0  0007              add [bx],al
00001FF2  2020              and [bx+si],ah
00001FF4  2020              and [bx+si],ah
00001FF6  2020              and [bx+si],ah
00001FF8  2020              and [bx+si],ah
00001FFA  2020              and [bx+si],ah
00001FFC  2020              and [bx+si],ah
00001FFE  2020              and [bx+si],ah
00002000  2020              and [bx+si],ah
00002002  2020              and [bx+si],ah
00002004  2020              and [bx+si],ah
00002006  2020              and [bx+si],ah
00002008  2020              and [bx+si],ah
0000200A  2020              and [bx+si],ah
0000200C  2020              and [bx+si],ah
0000200E  2020              and [bx+si],ah
00002010  2020              and [bx+si],ah
00002012  204154            and [bx+di+0x54],al
00002015  54                push sp
00002016  52                push dx
00002017  49                dec cx
00002018  42                inc dx
00002019  55                push bp
0000201A  54                push sp
0000201B  45                inc bp
0000201C  205445            and [si+0x45],dl
0000201F  53                push bx
00002020  54                push sp
00002021  0D0D20            or ax,0x200d
00002024  2020              and [bx+si],ah
00002026  2020              and [bx+si],ah
00002028  2020              and [bx+si],ah
0000202A  2020              and [bx+si],ah
0000202C  2020              and [bx+si],ah
0000202E  2020              and [bx+si],ah
00002030  2020              and [bx+si],ah
00002032  2020              and [bx+si],ah
00002034  2020              and [bx+si],ah
00002036  2020              and [bx+si],ah
00002038  2020              and [bx+si],ah
0000203A  2020              and [bx+si],ah
0000203C  2020              and [bx+si],ah
0000203E  2020              and [bx+si],ah
00002040  2020              and [bx+si],ah
00002042  2020              and [bx+si],ah
00002044  2024              and [si],ah
00002046  01556E            add [di+0x6e],dx
00002049  6465726C          gs jc 0x20b9
0000204D  696E656424        imul bp,[bp+0x65],word 0x2464
00002052  07                pop es
00002053  0D0D20            or ax,0x200d
00002056  2020              and [bx+si],ah
00002058  2020              and [bx+si],ah
0000205A  2020              and [bx+si],ah
0000205C  2020              and [bx+si],ah
0000205E  2020              and [bx+si],ah
00002060  2020              and [bx+si],ah
00002062  2020              and [bx+si],ah
00002064  2020              and [bx+si],ah
00002066  2020              and [bx+si],ah
00002068  2020              and [bx+si],ah
0000206A  2020              and [bx+si],ah
0000206C  2020              and [bx+si],ah
0000206E  2020              and [bx+si],ah
00002070  2020              and [bx+si],ah
00002072  2020              and [bx+si],ah
00002074  2024              and [si],ah
00002076  0A4869            or cl,[bx+si+0x69]
00002079  67682049          push word 0x4920
0000207D  6E                outsb
0000207E  7465              jz 0x20e5
00002080  6E                outsb
00002081  7369              jnc 0x20ec
00002083  7479              jz 0x20fe
00002085  2407              and al,0x7
00002087  0D0D20            or ax,0x200d
0000208A  2020              and [bx+si],ah
0000208C  2020              and [bx+si],ah
0000208E  2020              and [bx+si],ah
00002090  2020              and [bx+si],ah
00002092  2020              and [bx+si],ah
00002094  2020              and [bx+si],ah
00002096  2020              and [bx+si],ah
00002098  2020              and [bx+si],ah
0000209A  2020              and [bx+si],ah
0000209C  2020              and [bx+si],ah
0000209E  2020              and [bx+si],ah
000020A0  2020              and [bx+si],ah
000020A2  2024              and [si],ah
000020A4  09556E            or [di+0x6e],dx
000020A7  6465726C          gs jc 0x2117
000020AB  696E65642C        imul bp,[bp+0x65],word 0x2c64
000020B0  204869            and [bx+si+0x69],cl
000020B3  67682049          push word 0x4920
000020B7  6E                outsb
000020B8  7465              jz 0x211f
000020BA  6E                outsb
000020BB  7369              jnc 0x2126
000020BD  7479              jz 0x2138
000020BF  2407              and al,0x7
000020C1  0D0D20            or ax,0x200d
000020C4  2020              and [bx+si],ah
000020C6  2020              and [bx+si],ah
000020C8  2020              and [bx+si],ah
000020CA  2020              and [bx+si],ah
000020CC  2020              and [bx+si],ah
000020CE  2020              and [bx+si],ah
000020D0  2020              and [bx+si],ah
000020D2  2020              and [bx+si],ah
000020D4  2020              and [bx+si],ah
000020D6  2020              and [bx+si],ah
000020D8  2020              and [bx+si],ah
000020DA  2020              and [bx+si],ah
000020DC  2020              and [bx+si],ah
000020DE  2020              and [bx+si],ah
000020E0  2020              and [bx+si],ah
000020E2  2024              and [si],ah
000020E4  7052              jo 0x2138
000020E6  657665            gs jna 0x214e
000020E9  7273              jc 0x215e
000020EB  65205669          and [gs:bp+0x69],dl
000020EF  64656F            gs outsw
000020F2  2407              and al,0x7
000020F4  0D0D20            or ax,0x200d
000020F7  2020              and [bx+si],ah
000020F9  2020              and [bx+si],ah
000020FB  2020              and [bx+si],ah
000020FD  2020              and [bx+si],ah
000020FF  2020              and [bx+si],ah
00002101  2020              and [bx+si],ah
00002103  2020              and [bx+si],ah
00002105  2020              and [bx+si],ah
00002107  2020              and [bx+si],ah
00002109  2020              and [bx+si],ah
0000210B  2020              and [bx+si],ah
0000210D  2024              and [si],ah
0000210F  7852              js 0x2163
00002111  657665            gs jna 0x2179
00002114  7273              jc 0x2189
00002116  65205669          and [gs:bp+0x69],dl
0000211A  64656F            gs outsw
0000211D  2C20              sub al,0x20
0000211F  48                dec ax
00002120  6967682049        imul sp,[bx+0x68],word 0x4920
00002125  6E                outsb
00002126  7465              jz 0x218d
00002128  6E                outsb
00002129  7369              jnc 0x2194
0000212B  7479              jz 0x21a6
0000212D  2407              and al,0x7
0000212F  0D0D20            or ax,0x200d
00002132  2020              and [bx+si],ah
00002134  2020              and [bx+si],ah
00002136  2020              and [bx+si],ah
00002138  2020              and [bx+si],ah
0000213A  2020              and [bx+si],ah
0000213C  2020              and [bx+si],ah
0000213E  2020              and [bx+si],ah
00002140  2020              and [bx+si],ah
00002142  2020              and [bx+si],ah
00002144  2020              and [bx+si],ah
00002146  2020              and [bx+si],ah
00002148  2020              and [bx+si],ah
0000214A  2020              and [bx+si],ah
0000214C  2020              and [bx+si],ah
0000214E  2020              and [bx+si],ah
00002150  2487              and al,0x87
00002152  42                inc dx
00002153  6C                insb
00002154  696E6B696E        imul bp,[bp+0x6b],word 0x6e69
00002159  67204E6F          and [esi+0x6f],cl
0000215D  726D              jc 0x21cc
0000215F  61                popa
00002160  6C                insb
00002161  2407              and al,0x7
00002163  0D0D20            or ax,0x200d
00002166  2020              and [bx+si],ah
00002168  2020              and [bx+si],ah
0000216A  2020              and [bx+si],ah
0000216C  2020              and [bx+si],ah
0000216E  2020              and [bx+si],ah
00002170  2020              and [bx+si],ah
00002172  2020              and [bx+si],ah
00002174  2020              and [bx+si],ah
00002176  2020              and [bx+si],ah
00002178  2020              and [bx+si],ah
0000217A  2020              and [bx+si],ah
0000217C  2020              and [bx+si],ah
0000217E  2020              and [bx+si],ah
00002180  2020              and [bx+si],ah
00002182  2481              and al,0x81
00002184  42                inc dx
00002185  6C                insb
00002186  696E6B696E        imul bp,[bp+0x6b],word 0x6e69
0000218B  672C20            sub al,0x20
0000218E  55                push bp
0000218F  6E                outsb
00002190  6465726C          gs jc 0x2200
00002194  696E656424        imul bp,[bp+0x65],word 0x2464
00002199  07                pop es
0000219A  0D0D20            or ax,0x200d
0000219D  2020              and [bx+si],ah
0000219F  2020              and [bx+si],ah
000021A1  2020              and [bx+si],ah
000021A3  2020              and [bx+si],ah
000021A5  2020              and [bx+si],ah
000021A7  2020              and [bx+si],ah
000021A9  2020              and [bx+si],ah
000021AB  2020              and [bx+si],ah
000021AD  2020              and [bx+si],ah
000021AF  2020              and [bx+si],ah
000021B1  2020              and [bx+si],ah
000021B3  2020              and [bx+si],ah
000021B5  2020              and [bx+si],ah
000021B7  2024              and [si],ah
000021B9  F042              lock inc dx
000021BB  6C                insb
000021BC  696E6B696E        imul bp,[bp+0x6b],word 0x6e69
000021C1  672C20            sub al,0x20
000021C4  52                push dx
000021C5  657665            gs jna 0x222d
000021C8  7273              jc 0x223d
000021CA  65205669          and [gs:bp+0x69],dl
000021CE  64656F            gs outsw
000021D1  2407              and al,0x7
000021D3  0D0D20            or ax,0x200d
000021D6  2020              and [bx+si],ah
000021D8  2020              and [bx+si],ah
000021DA  2020              and [bx+si],ah
000021DC  2020              and [bx+si],ah
000021DE  2020              and [bx+si],ah
000021E0  2020              and [bx+si],ah
000021E2  2020              and [bx+si],ah
000021E4  2020              and [bx+si],ah
000021E6  2020              and [bx+si],ah
000021E8  2024              and [si],ah
000021EA  F8                clc
000021EB  42                inc dx
000021EC  6C                insb
000021ED  696E6B696E        imul bp,[bp+0x6b],word 0x6e69
000021F2  672C20            sub al,0x20
000021F5  52                push dx
000021F6  657665            gs jna 0x225e
000021F9  7273              jc 0x226e
000021FB  65205669          and [gs:bp+0x69],dl
000021FF  64656F            gs outsw
00002202  2C20              sub al,0x20
00002204  48                dec ax
00002205  6967682049        imul sp,[bx+0x68],word 0x4920
0000220A  6E                outsb
0000220B  7465              jz 0x2272
0000220D  6E                outsb
0000220E  7369              jnc 0x2279
00002210  7479              jz 0x228b
00002212  2407              and al,0x7
00002214  0D0D20            or ax,0x200d
00002217  2020              and [bx+si],ah
00002219  2020              and [bx+si],ah
0000221B  2020              and [bx+si],ah
0000221D  2020              and [bx+si],ah
0000221F  2020              and [bx+si],ah
00002221  2020              and [bx+si],ah
00002223  2020              and [bx+si],ah
00002225  2020              and [bx+si],ah
00002227  2020              and [bx+si],ah
00002229  2020              and [bx+si],ah
0000222B  2489              and al,0x89
0000222D  42                inc dx
0000222E  6C                insb
0000222F  696E6B696E        imul bp,[bp+0x6b],word 0x6e69
00002234  672C20            sub al,0x20
00002237  55                push bp
00002238  6E                outsb
00002239  6465726C          gs jc 0x22a9
0000223D  696E65642C        imul bp,[bp+0x65],word 0x2c64
00002242  204869            and [bx+si+0x69],cl
00002245  67682049          push word 0x4920
00002249  6E                outsb
0000224A  7465              jz 0x22b1
0000224C  6E                outsb
0000224D  7369              jnc 0x22b8
0000224F  7479              jz 0x22ca
00002251  0007              add [bx],al
00002253  2020              and [bx+si],ah
00002255  B320              mov bl,0x20
00002257  2020              and [bx+si],ah
00002259  2020              and [bx+si],ah
0000225B  2020              and [bx+si],ah
0000225D  2020              and [bx+si],ah
0000225F  2020              and [bx+si],ah
00002261  2020              and [bx+si],ah
00002263  20B32020          and [bp+di+0x2020],dh
00002267  2020              and [bx+si],ah
00002269  2020              and [bx+si],ah
0000226B  2020              and [bx+si],ah
0000226D  2020              and [bx+si],ah
0000226F  2020              and [bx+si],ah
00002271  2020              and [bx+si],ah
00002273  B320              mov bl,0x20
00002275  2020              and [bx+si],ah
00002277  2020              and [bx+si],ah
00002279  2020              and [bx+si],ah
0000227B  2020              and [bx+si],ah
0000227D  2020              and [bx+si],ah
0000227F  2020              and [bx+si],ah
00002281  20B32020          and [bp+di+0x2020],dh
00002285  2020              and [bx+si],ah
00002287  2020              and [bx+si],ah
00002289  2020              and [bx+si],ah
0000228B  2020              and [bx+si],ah
0000228D  2020              and [bx+si],ah
0000228F  2020              and [bx+si],ah
00002291  B320              mov bl,0x20
00002293  2020              and [bx+si],ah
00002295  2020              and [bx+si],ah
00002297  2020              and [bx+si],ah
00002299  2020              and [bx+si],ah
0000229B  2020              and [bx+si],ah
0000229D  2020              and [bx+si],ah
0000229F  20B32020          and [bp+di+0x2020],dh
000022A3  0007              add [bx],al
000022A5  C4                db 0xc4
000022A6  C4                db 0xc4
000022A7  C5                db 0xc5
000022A8  C4                db 0xc4
000022A9  C4                db 0xc4
000022AA  C4                db 0xc4
000022AB  C4                db 0xc4
000022AC  C4                db 0xc4
000022AD  C4                db 0xc4
000022AE  C4                db 0xc4
000022AF  C4                db 0xc4
000022B0  C4                db 0xc4
000022B1  C4                db 0xc4
000022B2  C4                db 0xc4
000022B3  C4                db 0xc4
000022B4  C4                db 0xc4
000022B5  C4                db 0xc4
000022B6  C5                db 0xc5
000022B7  C4                db 0xc4
000022B8  C4                db 0xc4
000022B9  C4                db 0xc4
000022BA  C4                db 0xc4
000022BB  C4                db 0xc4
000022BC  C4                db 0xc4
000022BD  C4                db 0xc4
000022BE  C4                db 0xc4
000022BF  C4                db 0xc4
000022C0  C4                db 0xc4
000022C1  C4                db 0xc4
000022C2  C4                db 0xc4
000022C3  C4                db 0xc4
000022C4  C4                db 0xc4
000022C5  C5                db 0xc5
000022C6  C4                db 0xc4
000022C7  C4                db 0xc4
000022C8  C4                db 0xc4
000022C9  C4                db 0xc4
000022CA  C4                db 0xc4
000022CB  C4                db 0xc4
000022CC  C4                db 0xc4
000022CD  C4                db 0xc4
000022CE  C4                db 0xc4
000022CF  C4                db 0xc4
000022D0  C4                db 0xc4
000022D1  C4                db 0xc4
000022D2  C4                db 0xc4
000022D3  C4                db 0xc4
000022D4  C5                db 0xc5
000022D5  C4                db 0xc4
000022D6  C4                db 0xc4
000022D7  C4                db 0xc4
000022D8  C4                db 0xc4
000022D9  C4                db 0xc4
000022DA  C4                db 0xc4
000022DB  C4                db 0xc4
000022DC  C4                db 0xc4
000022DD  C4                db 0xc4
000022DE  C4                db 0xc4
000022DF  C4                db 0xc4
000022E0  C4                db 0xc4
000022E1  C4                db 0xc4
000022E2  C4                db 0xc4
000022E3  C5                db 0xc5
000022E4  C4                db 0xc4
000022E5  C4                db 0xc4
000022E6  C4                db 0xc4
000022E7  C4                db 0xc4
000022E8  C4                db 0xc4
000022E9  C4                db 0xc4
000022EA  C4                db 0xc4
000022EB  C4                db 0xc4
000022EC  C4                db 0xc4
000022ED  C4                db 0xc4
000022EE  C4                db 0xc4
000022EF  C4                db 0xc4
000022F0  C4                db 0xc4
000022F1  C4                db 0xc4
000022F2  C5                db 0xc5
000022F3  C4                db 0xc4
000022F4  C400              les ax,[bx+si]
000022F6  07                pop es
000022F7  43                inc bx
000022F8  4F                dec di
000022F9  4C                dec sp
000022FA  4F                dec di
000022FB  52                push dx
000022FC  205445            and [si+0x45],dl
000022FF  53                push bx
00002300  54                push sp
00002301  0007              add [bx],al
00002303  2020              and [bx+si],ah
00002305  2020              and [bx+si],ah
00002307  2020              and [bx+si],ah
00002309  2020              and [bx+si],ah
0000230B  2020              and [bx+si],ah
0000230D  20424C            and [bp+si+0x4c],al
00002310  41                inc cx
00002311  43                inc bx
00002312  4B                dec bx
00002313  2020              and [bx+si],ah
00002315  2020              and [bx+si],ah
00002317  2020              and [bx+si],ah
00002319  2020              and [bx+si],ah
0000231B  2020              and [bx+si],ah
0000231D  2020              and [bx+si],ah
0000231F  2020              and [bx+si],ah
00002321  2020              and [bx+si],ah
00002323  2020              and [bx+si],ah
00002325  2020              and [bx+si],ah
00002327  2020              and [bx+si],ah
00002329  2020              and [bx+si],ah
0000232B  2020              and [bx+si],ah
0000232D  2020              and [bx+si],ah
0000232F  2020              and [bx+si],ah
00002331  2020              and [bx+si],ah
00002333  2020              and [bx+si],ah
00002335  2020              and [bx+si],ah
00002337  44                inc sp
00002338  41                inc cx
00002339  52                push dx
0000233A  4B                dec bx
0000233B  204752            and [bx+0x52],al
0000233E  41                inc cx
0000233F  59                pop cx
00002340  0D0D20            or ax,0x200d
00002343  2020              and [bx+si],ah
00002345  2020              and [bx+si],ah
00002347  2020              and [bx+si],ah
00002349  2020              and [bx+si],ah
0000234B  2020              and [bx+si],ah
0000234D  42                inc dx
0000234E  4C                dec sp
0000234F  55                push bp
00002350  45                inc bp
00002351  2020              and [bx+si],ah
00002353  2020              and [bx+si],ah
00002355  2020              and [bx+si],ah
00002357  2020              and [bx+si],ah
00002359  2020              and [bx+si],ah
0000235B  2020              and [bx+si],ah
0000235D  2020              and [bx+si],ah
0000235F  2020              and [bx+si],ah
00002361  2020              and [bx+si],ah
00002363  2020              and [bx+si],ah
00002365  2020              and [bx+si],ah
00002367  2020              and [bx+si],ah
00002369  2020              and [bx+si],ah
0000236B  2020              and [bx+si],ah
0000236D  2020              and [bx+si],ah
0000236F  2020              and [bx+si],ah
00002371  2020              and [bx+si],ah
00002373  2020              and [bx+si],ah
00002375  204C49            and [si+0x49],cl
00002378  47                inc di
00002379  48                dec ax
0000237A  54                push sp
0000237B  20424C            and [bp+si+0x4c],al
0000237E  55                push bp
0000237F  45                inc bp
00002380  0D0D20            or ax,0x200d
00002383  2020              and [bx+si],ah
00002385  2020              and [bx+si],ah
00002387  2020              and [bx+si],ah
00002389  2020              and [bx+si],ah
0000238B  2020              and [bx+si],ah
0000238D  47                inc di
0000238E  52                push dx
0000238F  45                inc bp
00002390  45                inc bp
00002391  4E                dec si
00002392  2020              and [bx+si],ah
00002394  2020              and [bx+si],ah
00002396  2020              and [bx+si],ah
00002398  2020              and [bx+si],ah
0000239A  2020              and [bx+si],ah
0000239C  2020              and [bx+si],ah
0000239E  2020              and [bx+si],ah
000023A0  2020              and [bx+si],ah
000023A2  2020              and [bx+si],ah
000023A4  2020              and [bx+si],ah
000023A6  2020              and [bx+si],ah
000023A8  2020              and [bx+si],ah
000023AA  2020              and [bx+si],ah
000023AC  2020              and [bx+si],ah
000023AE  2020              and [bx+si],ah
000023B0  2020              and [bx+si],ah
000023B2  2020              and [bx+si],ah
000023B4  2020              and [bx+si],ah
000023B6  4C                dec sp
000023B7  49                dec cx
000023B8  47                inc di
000023B9  48                dec ax
000023BA  54                push sp
000023BB  204752            and [bx+0x52],al
000023BE  45                inc bp
000023BF  45                inc bp
000023C0  4E                dec si
000023C1  0D0D20            or ax,0x200d
000023C4  2020              and [bx+si],ah
000023C6  2020              and [bx+si],ah
000023C8  2020              and [bx+si],ah
000023CA  2020              and [bx+si],ah
000023CC  2020              and [bx+si],ah
000023CE  43                inc bx
000023CF  59                pop cx
000023D0  41                inc cx
000023D1  4E                dec si
000023D2  2020              and [bx+si],ah
000023D4  2020              and [bx+si],ah
000023D6  2020              and [bx+si],ah
000023D8  2020              and [bx+si],ah
000023DA  2020              and [bx+si],ah
000023DC  2020              and [bx+si],ah
000023DE  2020              and [bx+si],ah
000023E0  2020              and [bx+si],ah
000023E2  2020              and [bx+si],ah
000023E4  2020              and [bx+si],ah
000023E6  2020              and [bx+si],ah
000023E8  2020              and [bx+si],ah
000023EA  2020              and [bx+si],ah
000023EC  2020              and [bx+si],ah
000023EE  2020              and [bx+si],ah
000023F0  2020              and [bx+si],ah
000023F2  2020              and [bx+si],ah
000023F4  2020              and [bx+si],ah
000023F6  204C49            and [si+0x49],cl
000023F9  47                inc di
000023FA  48                dec ax
000023FB  54                push sp
000023FC  204359            and [bp+di+0x59],al
000023FF  41                inc cx
00002400  4E                dec si
00002401  0D0D20            or ax,0x200d
00002404  2020              and [bx+si],ah
00002406  2020              and [bx+si],ah
00002408  2020              and [bx+si],ah
0000240A  2020              and [bx+si],ah
0000240C  2020              and [bx+si],ah
0000240E  52                push dx
0000240F  45                inc bp
00002410  44                inc sp
00002411  2020              and [bx+si],ah
00002413  2020              and [bx+si],ah
00002415  2020              and [bx+si],ah
00002417  2020              and [bx+si],ah
00002419  2020              and [bx+si],ah
0000241B  2020              and [bx+si],ah
0000241D  2020              and [bx+si],ah
0000241F  2020              and [bx+si],ah
00002421  2020              and [bx+si],ah
00002423  2020              and [bx+si],ah
00002425  2020              and [bx+si],ah
00002427  2020              and [bx+si],ah
00002429  2020              and [bx+si],ah
0000242B  2020              and [bx+si],ah
0000242D  2020              and [bx+si],ah
0000242F  2020              and [bx+si],ah
00002431  2020              and [bx+si],ah
00002433  2020              and [bx+si],ah
00002435  2020              and [bx+si],ah
00002437  4C                dec sp
00002438  49                dec cx
00002439  47                inc di
0000243A  48                dec ax
0000243B  54                push sp
0000243C  205245            and [bp+si+0x45],dl
0000243F  44                inc sp
00002440  0D0D20            or ax,0x200d
00002443  2020              and [bx+si],ah
00002445  2020              and [bx+si],ah
00002447  2020              and [bx+si],ah
00002449  2020              and [bx+si],ah
0000244B  2020              and [bx+si],ah
0000244D  4D                dec bp
0000244E  41                inc cx
0000244F  47                inc di
00002450  45                inc bp
00002451  4E                dec si
00002452  54                push sp
00002453  41                inc cx
00002454  2020              and [bx+si],ah
00002456  2020              and [bx+si],ah
00002458  2020              and [bx+si],ah
0000245A  2020              and [bx+si],ah
0000245C  2020              and [bx+si],ah
0000245E  2020              and [bx+si],ah
00002460  2020              and [bx+si],ah
00002462  2020              and [bx+si],ah
00002464  2020              and [bx+si],ah
00002466  2020              and [bx+si],ah
00002468  2020              and [bx+si],ah
0000246A  2020              and [bx+si],ah
0000246C  2020              and [bx+si],ah
0000246E  2020              and [bx+si],ah
00002470  2020              and [bx+si],ah
00002472  2020              and [bx+si],ah
00002474  2020              and [bx+si],ah
00002476  4C                dec sp
00002477  49                dec cx
00002478  47                inc di
00002479  48                dec ax
0000247A  54                push sp
0000247B  204D41            and [di+0x41],cl
0000247E  47                inc di
0000247F  45                inc bp
00002480  4E                dec si
00002481  54                push sp
00002482  41                inc cx
00002483  0D0D20            or ax,0x200d
00002486  2020              and [bx+si],ah
00002488  2020              and [bx+si],ah
0000248A  2020              and [bx+si],ah
0000248C  2020              and [bx+si],ah
0000248E  2020              and [bx+si],ah
00002490  42                inc dx
00002491  52                push dx
00002492  4F                dec di
00002493  57                push di
00002494  4E                dec si
00002495  2020              and [bx+si],ah
00002497  2020              and [bx+si],ah
00002499  2020              and [bx+si],ah
0000249B  2020              and [bx+si],ah
0000249D  2020              and [bx+si],ah
0000249F  2020              and [bx+si],ah
000024A1  2020              and [bx+si],ah
000024A3  2020              and [bx+si],ah
000024A5  2020              and [bx+si],ah
000024A7  2020              and [bx+si],ah
000024A9  2020              and [bx+si],ah
000024AB  2020              and [bx+si],ah
000024AD  2020              and [bx+si],ah
000024AF  2020              and [bx+si],ah
000024B1  2020              and [bx+si],ah
000024B3  2020              and [bx+si],ah
000024B5  2020              and [bx+si],ah
000024B7  2020              and [bx+si],ah
000024B9  59                pop cx
000024BA  45                inc bp
000024BB  4C                dec sp
000024BC  4C                dec sp
000024BD  4F                dec di
000024BE  57                push di
000024BF  0D0D20            or ax,0x200d
000024C2  2020              and [bx+si],ah
000024C4  2020              and [bx+si],ah
000024C6  2020              and [bx+si],ah
000024C8  2020              and [bx+si],ah
000024CA  2020              and [bx+si],ah
000024CC  4C                dec sp
000024CD  49                dec cx
000024CE  47                inc di
000024CF  48                dec ax
000024D0  54                push sp
000024D1  204752            and [bx+0x52],al
000024D4  41                inc cx
000024D5  59                pop cx
000024D6  2020              and [bx+si],ah
000024D8  2020              and [bx+si],ah
000024DA  2020              and [bx+si],ah
000024DC  2020              and [bx+si],ah
000024DE  2020              and [bx+si],ah
000024E0  2020              and [bx+si],ah
000024E2  2020              and [bx+si],ah
000024E4  2020              and [bx+si],ah
000024E6  2020              and [bx+si],ah
000024E8  2020              and [bx+si],ah
000024EA  2020              and [bx+si],ah
000024EC  2020              and [bx+si],ah
000024EE  2020              and [bx+si],ah
000024F0  2020              and [bx+si],ah
000024F2  2020              and [bx+si],ah
000024F4  205748            and [bx+0x48],dl
000024F7  49                dec cx
000024F8  54                push sp
000024F9  45                inc bp
000024FA  0D0D00            or ax,0xd
000024FD  0238              add bh,[bx+si]
000024FF  3020              xor [bx+si],ah
00002501  43                inc bx
00002502  4F                dec di
00002503  4C                dec sp
00002504  55                push bp
00002505  4D                dec bp
00002506  4E                dec si
00002507  205041            and [bx+si+0x41],dl
0000250A  47                inc di
0000250B  49                dec cx
0000250C  4E                dec si
0000250D  47                inc di
0000250E  205445            and [si+0x45],dl
00002511  53                push bx
00002512  54                push sp
00002513  005448            add [si+0x48],dl
00002516  49                dec cx
00002517  53                push bx
00002518  204953            and [bx+di+0x53],cl
0000251B  205041            and [bx+si+0x41],dl
0000251E  47                inc di
0000251F  45                inc bp
00002520  2020              and [bx+si],ah
00002522  3020              xor [bx+si],ah
00002524  2020              and [bx+si],ah
00002526  2020              and [bx+si],ah
00002528  205448            and [si+0x48],dl
0000252B  49                dec cx
0000252C  53                push bx
0000252D  204953            and [bx+di+0x53],cl
00002530  205041            and [bx+si+0x41],dl
00002533  47                inc di
00002534  45                inc bp
00002535  2020              and [bx+si],ah
00002537  3020              xor [bx+si],ah
00002539  2020              and [bx+si],ah
0000253B  2003              and [bp+di],al
0000253D  3430              xor al,0x30
0000253F  20434F            and [bp+di+0x4f],al
00002542  4C                dec sp
00002543  55                push bp
00002544  4D                dec bp
00002545  4E                dec si
00002546  204348            and [bp+di+0x48],al
00002549  41                inc cx
0000254A  52                push dx
0000254B  41                inc cx
0000254C  43                inc bx
0000254D  54                push sp
0000254E  45                inc bp
0000254F  52                push dx
00002550  205445            and [si+0x45],dl
00002553  53                push bx
00002554  54                push sp
00002555  0002              add [bp+si],al
00002557  3430              xor al,0x30
00002559  20434F            and [bp+di+0x4f],al
0000255C  4C                dec sp
0000255D  55                push bp
0000255E  4D                dec bp
0000255F  4E                dec si
00002560  205041            and [bx+si+0x41],dl
00002563  47                inc di
00002564  49                dec cx
00002565  4E                dec si
00002566  47                inc di
00002567  205445            and [si+0x45],dl
0000256A  53                push bx
0000256B  54                push sp
0000256C  0007              add [bx],al
0000256E  3332              xor si,[bp+si]
00002570  3020              xor [bx+si],ah
00002572  58                pop ax
00002573  2032              and [bp+si],dh
00002575  3030              xor [bx+si],dh
00002577  204752            and [bx+0x52],al
0000257A  41                inc cx
0000257B  50                push ax
0000257C  48                dec ax
0000257D  49                dec cx
0000257E  43                inc bx
0000257F  53                push bx
00002580  205445            and [si+0x45],dl
00002583  53                push bx
00002584  54                push sp
00002585  0007              add [bx],al
00002587  2020              and [bx+si],ah
00002589  2020              and [bx+si],ah
0000258B  42                inc dx
0000258C  4C                dec sp
0000258D  41                inc cx
0000258E  43                inc bx
0000258F  4B                dec bx
00002590  2020              and [bx+si],ah
00002592  2020              and [bx+si],ah
00002594  0007              add [bx],al
00002596  2020              and [bx+si],ah
00002598  4C                dec sp
00002599  49                dec cx
0000259A  47                inc di
0000259B  48                dec ax
0000259C  54                push sp
0000259D  204359            and [bp+di+0x59],al
000025A0  41                inc cx
000025A1  4E                dec si
000025A2  2000              and [bx+si],al
000025A4  07                pop es
000025A5  4C                dec sp
000025A6  49                dec cx
000025A7  47                inc di
000025A8  48                dec ax
000025A9  54                push sp
000025AA  204D41            and [di+0x41],cl
000025AD  47                inc di
000025AE  45                inc bp
000025AF  4E                dec si
000025B0  54                push sp
000025B1  41                inc cx
000025B2  0007              add [bx],al
000025B4  2020              and [bx+si],ah
000025B6  2020              and [bx+si],ah
000025B8  57                push di
000025B9  48                dec ax
000025BA  49                dec cx
000025BB  54                push sp
000025BC  45                inc bp
000025BD  2020              and [bx+si],ah
000025BF  2020              and [bx+si],ah
000025C1  0007              add [bx],al
000025C3  2020              and [bx+si],ah
000025C5  2020              and [bx+si],ah
000025C7  42                inc dx
000025C8  4C                dec sp
000025C9  41                inc cx
000025CA  43                inc bx
000025CB  4B                dec bx
000025CC  2020              and [bx+si],ah
000025CE  2020              and [bx+si],ah
000025D0  0007              add [bx],al
000025D2  2020              and [bx+si],ah
000025D4  2020              and [bx+si],ah
000025D6  43                inc bx
000025D7  59                pop cx
000025D8  41                inc cx
000025D9  4E                dec si
000025DA  2020              and [bx+si],ah
000025DC  2020              and [bx+si],ah
000025DE  2000              and [bx+si],al
000025E0  07                pop es
000025E1  2020              and [bx+si],ah
000025E3  204D41            and [di+0x41],cl
000025E6  47                inc di
000025E7  45                inc bp
000025E8  4E                dec si
000025E9  54                push sp
000025EA  41                inc cx
000025EB  2020              and [bx+si],ah
000025ED  2000              and [bx+si],al
000025EF  07                pop es
000025F0  2020              and [bx+si],ah
000025F2  4C                dec sp
000025F3  49                dec cx
000025F4  47                inc di
000025F5  48                dec ax
000025F6  54                push sp
000025F7  204752            and [bx+0x52],al
000025FA  41                inc cx
000025FB  59                pop cx
000025FC  2000              and [bx+si],al
000025FE  07                pop es
000025FF  2020              and [bx+si],ah
00002601  2020              and [bx+si],ah
00002603  42                inc dx
00002604  4C                dec sp
00002605  41                inc cx
00002606  43                inc bx
00002607  4B                dec bx
00002608  2020              and [bx+si],ah
0000260A  2020              and [bx+si],ah
0000260C  0007              add [bx],al
0000260E  204C49            and [si+0x49],cl
00002611  47                inc di
00002612  48                dec ax
00002613  54                push sp
00002614  204752            and [bx+0x52],al
00002617  45                inc bp
00002618  45                inc bp
00002619  4E                dec si
0000261A  2000              and [bx+si],al
0000261C  07                pop es
0000261D  2020              and [bx+si],ah
0000261F  4C                dec sp
00002620  49                dec cx
00002621  47                inc di
00002622  48                dec ax
00002623  54                push sp
00002624  205245            and [bp+si+0x45],dl
00002627  44                inc sp
00002628  2020              and [bx+si],ah
0000262A  0007              add [bx],al
0000262C  2020              and [bx+si],ah
0000262E  205945            and [bx+di+0x45],bl
00002631  4C                dec sp
00002632  4C                dec sp
00002633  4F                dec di
00002634  57                push di
00002635  2020              and [bx+si],ah
00002637  2020              and [bx+si],ah
00002639  0007              add [bx],al
0000263B  2020              and [bx+si],ah
0000263D  2020              and [bx+si],ah
0000263F  42                inc dx
00002640  4C                dec sp
00002641  41                inc cx
00002642  43                inc bx
00002643  4B                dec bx
00002644  2020              and [bx+si],ah
00002646  2020              and [bx+si],ah
00002648  0007              add [bx],al
0000264A  2020              and [bx+si],ah
0000264C  2020              and [bx+si],ah
0000264E  47                inc di
0000264F  52                push dx
00002650  45                inc bp
00002651  45                inc bp
00002652  4E                dec si
00002653  2020              and [bx+si],ah
00002655  2020              and [bx+si],ah
00002657  0007              add [bx],al
00002659  2020              and [bx+si],ah
0000265B  2020              and [bx+si],ah
0000265D  205245            and [bp+si+0x45],dl
00002660  44                inc sp
00002661  2020              and [bx+si],ah
00002663  2020              and [bx+si],ah
00002665  2000              and [bx+si],al
00002667  07                pop es
00002668  2020              and [bx+si],ah
0000266A  2020              and [bx+si],ah
0000266C  42                inc dx
0000266D  52                push dx
0000266E  4F                dec di
0000266F  57                push di
00002670  4E                dec si
00002671  2020              and [bx+si],ah
00002673  2020              and [bx+si],ah
00002675  0007              add [bx],al
00002677  363430            ss xor al,0x30
0000267A  205820            and [bx+si+0x20],bl
0000267D  3230              xor dh,[bx+si]
0000267F  3020              xor [bx+si],ah
00002681  47                inc di
00002682  52                push dx
00002683  41                inc cx
00002684  50                push ax
00002685  48                dec ax
00002686  49                dec cx
00002687  43                inc bx
00002688  53                push bx
00002689  205445            and [si+0x45],dl
0000268C  53                push bx
0000268D  54                push sp
0000268E  2032              and [bp+si],dh
00002690  20434F            and [bp+di+0x4f],al
00002693  4C                dec sp
00002694  4F                dec di
00002695  52                push dx
00002696  53                push bx
00002697  0007              add [bx],al
00002699  363430            ss xor al,0x30
0000269C  205820            and [bx+si+0x20],bl
0000269F  3230              xor dh,[bx+si]
000026A1  3020              xor [bx+si],ah
000026A3  47                inc di
000026A4  52                push dx
000026A5  41                inc cx
000026A6  50                push ax
000026A7  48                dec ax
000026A8  49                dec cx
000026A9  43                inc bx
000026AA  53                push bx
000026AB  205445            and [si+0x45],dl
000026AE  53                push bx
000026AF  54                push sp
000026B0  2031              and [bx+di],dh
000026B2  3620434F          and [ss:bp+di+0x4f],al
000026B6  4C                dec sp
000026B7  4F                dec di
000026B8  52                push dx
000026B9  53                push bx
000026BA  0000              add [bx+si],al
000026BC  0000              add [bx+si],al
000026BE  352D2E            xor ax,0x2e2d
000026C1  07                pop es
000026C2  5B                pop bx
000026C3  025757            add dl,[bx+0x57]
000026C6  0203              add al,[bp+di]
000026C8  0000              add [bx+si],al
000026CA  0000              add [bx+si],al
000026CC  0000              add [bx+si],al
000026CE  2E27              cs daa
000026D0  4E                dec si
000026D1  27                daa
000026D2  6E                outsb
000026D3  27                daa
000026D4  4E                dec si
000026D5  27                daa
000026D6  4E                dec si
000026D7  280E28AE          sub [0xae28],cl
000026DB  27                daa
000026DC  4E                dec si
000026DD  27                daa
000026DE  2E27              cs daa
000026E0  EE                out dx,al
000026E1  280E278E          sub [0x8e27],cl
000026E5  27                daa
000026E6  AE                scasb
000026E7  27                daa
000026E8  CE                into
000026E9  27                daa
000026EA  EE                out dx,al
000026EB  27                daa
000026EC  0E                push cs
000026ED  282E284E          sub [0x4e28],ch
000026F1  286E28            sub [bp+0x28],ch
000026F4  0000              add [bx+si],al
000026F6  0E                push cs
000026F7  282E288E          sub [0x8e28],ch
000026FB  280E27CE          sub [0xce27],cl
000026FF  27                daa
00002700  6E                outsb
00002701  27                daa
00002702  AE                scasb
00002703  280E27CE          sub [0xce27],cl
00002707  28EE              sub dh,ch
00002709  28AE2800          sub [bp+0x28],ch
0000270D  0000              add [bx+si],al
0000270F  0000              add [bx+si],al
00002711  0000              add [bx+si],al
00002713  0000              add [bx+si],al
00002715  0000              add [bx+si],al
00002717  0000              add [bx+si],al
00002719  0000              add [bx+si],al
0000271B  0000              add [bx+si],al
0000271D  0000              add [bx+si],al
0000271F  0000              add [bx+si],al
00002721  0000              add [bx+si],al
00002723  0000              add [bx+si],al
00002725  0000              add [bx+si],al
00002727  0000              add [bx+si],al
00002729  0000              add [bx+si],al
0000272B  0000              add [bx+si],al
0000272D  0000              add [bx+si],al
0000272F  0000              add [bx+si],al
00002731  00063309          add [0x933],al
00002735  4D                dec bp
00002736  11891189          adc [bx+di-0x76ef],cx
0000273A  2111              and [bx+di],dx
0000273C  41                inc cx
0000273D  11C2              adc dx,ax
0000273F  2100              and [bx+si],ax
00002741  0000              add [bx+si],al
00002743  0000              add [bx+si],al
00002745  0000              add [bx+si],al
00002747  0000              add [bx+si],al
00002749  0000              add [bx+si],al
0000274B  0000              add [bx+si],al
0000274D  0000              add [bx+si],al
0000274F  0001              add [bx+di],al
00002751  8006610A14        add byte [0xa61],0x14
00002756  11F8              adc ax,di
00002758  60                pusha
00002759  04A0              add al,0xa0
0000275B  0420              add al,0x20
0000275D  0410              add al,0x10
0000275F  080F              or [bx],cl
00002761  F00000            lock add [bx+si],al
00002764  0000              add [bx+si],al
00002766  0000              add [bx+si],al
00002768  0000              add [bx+si],al
0000276A  0000              add [bx+si],al
0000276C  0000              add [bx+si],al
0000276E  0000              add [bx+si],al
00002770  018C0694          add [si-0x6bfa],cx
00002774  08A210C2          or [bp+si-0x3df0],ah
00002778  10822082          adc [bp+si-0x7de0],al
0000277C  40                inc ax
0000277D  82                db 0x82
0000277E  C10300            rol word [bp+di],byte 0x0
00002781  0000              add [bx+si],al
00002783  0000              add [bx+si],al
00002785  0000              add [bx+si],al
00002787  0000              add [bx+si],al
00002789  0000              add [bx+si],al
0000278B  0000              add [bx+si],al
0000278D  0000              add [bx+si],al
0000278F  0000              add [bx+si],al
00002791  0003              add [bp+di],al
00002793  E004              loopne 0x2799
00002795  2008              and [bx+si],cl
00002797  1008              adc [bx+si],cl
00002799  1010              adc [bx+si],dl
0000279B  2008              and [bx+si],cl
0000279D  3F                aas
0000279E  07                pop es
0000279F  C00380            rol byte [bp+di],byte 0x80
000027A2  0D0012            or ax,0x1200
000027A5  00260038          add [0x3800],ah
000027A9  0000              add [bx+si],al
000027AB  0000              add [bx+si],al
000027AD  0000              add [bx+si],al
000027AF  0001              add [bx+di],al
000027B1  0002              add [bp+si],al
000027B3  0007              add [bx],al
000027B5  F8                clc
000027B6  0408              add al,0x8
000027B8  0808              or [bx+si],cl
000027BA  1010              adc [bx+si],dl
000027BC  60                pusha
000027BD  10800F00          adc [bx+si+0xf],al
000027C1  0000              add [bx+si],al
000027C3  0000              add [bx+si],al
000027C5  0000              add [bx+si],al
000027C7  0000              add [bx+si],al
000027C9  0000              add [bx+si],al
000027CB  0000              add [bx+si],al
000027CD  0000              add [bx+si],al
000027CF  0000              add [bx+si],al
000027D1  000F              add [bx],cl
000027D3  E010              loopne 0x27e5
000027D5  60                pusha
000027D6  20A020A0          and [bx+si-0x5fe0],ah
000027DA  20C0              and al,al
000027DC  20C0              and al,al
000027DE  DF7F00            fistp qword [bx+0x0]
000027E1  0000              add [bx+si],al
000027E3  0000              add [bx+si],al
000027E5  0000              add [bx+si],al
000027E7  0000              add [bx+si],al
000027E9  0000              add [bx+si],al
000027EB  0000              add [bx+si],al
000027ED  0000              add [bx+si],al
000027EF  0000              add [bx+si],al
000027F1  0000              add [bx+si],al
000027F3  8001F8            add byte [bx+di],0xf8
000027F6  0308              add cx,[bx+si]
000027F8  07                pop es
000027F9  080E083A          or [0x3a08],cl
000027FD  10CF              adc bh,cl
000027FF  FF14              call [si]
00002801  0024              add [si],ah
00002803  0028              add [bx+si],ch
00002805  005000            add [bx+si+0x0],dl
00002808  60                pusha
00002809  0000              add [bx+si],al
0000280B  0000              add [bx+si],al
0000280D  0001              add [bx+di],al
0000280F  0002              add [bp+si],al
00002811  800480            add byte [si],0x80
00002814  05000B            add ax,0xb00
00002817  E00A              loopne 0x2823
00002819  40                inc ax
0000281A  0C40              or al,0x40
0000281C  1040F0            adc [bx+si-0x10],al
0000281F  1F                pop ds
00002820  0000              add [bx+si],al
00002822  0000              add [bx+si],al
00002824  0000              add [bx+si],al
00002826  0000              add [bx+si],al
00002828  0000              add [bx+si],al
0000282A  0000              add [bx+si],al
0000282C  0000              add [bx+si],al
0000282E  0030              add [bx+si],dh
00002830  0030              add [bx+si],dh
00002832  0000              add [bx+si],al
00002834  004000            add [bx+si+0x0],al
00002837  800100            add byte [bx+di],0x0
0000283A  0300              add ax,[bx+si]
0000283C  1D00E1            sbb ax,0xe100
0000283F  83007C            add word [bx+si],byte +0x7c
00002842  0000              add [bx+si],al
00002844  0000              add [bx+si],al
00002846  0000              add [bx+si],al
00002848  0000              add [bx+si],al
0000284A  0000              add [bx+si],al
0000284C  0000              add [bx+si],al
0000284E  0000              add [bx+si],al
00002850  0000              add [bx+si],al
00002852  03F0              add si,ax
00002854  0400              add al,0x0
00002856  0800              or [bx+si],al
00002858  1800              sbb [bx+si],al
0000285A  2800              sub [bx+si],al
0000285C  46                inc si
0000285D  0083FF00          add [bp+di+0xff],al
00002861  0000              add [bx+si],al
00002863  0000              add [bx+si],al
00002865  0000              add [bx+si],al
00002867  0000              add [bx+si],al
00002869  0000              add [bx+si],al
0000286B  0000              add [bx+si],al
0000286D  0000              add [bx+si],al
0000286F  0000              add [bx+si],al
00002871  2000              and [bx+si],al
00002873  60                pusha
00002874  00A00110          add [bx+si+0x1001],ah
00002878  0211              add dl,[bx+di]
0000287A  0C12              or al,0x12
0000287C  101C              adc [si],bl
0000287E  EF                out dx,ax
0000287F  F00000            lock add [bx+si],al
00002882  0000              add [bx+si],al
00002884  0000              add [bx+si],al
00002886  0000              add [bx+si],al
00002888  0000              add [bx+si],al
0000288A  0000              add [bx+si],al
0000288C  0000              add [bx+si],al
0000288E  004000            add [bx+si+0x0],al
00002891  8007F8            add byte [bx],0xf8
00002894  0100              add [bx+si],ax
00002896  0100              add [bx+si],ax
00002898  0200              add al,[bx+si]
0000289A  06                push es
0000289B  0019              add [bx+di],bl
0000289D  01E0              add ax,sp
0000289F  FE00              inc byte [bx+si]
000028A1  0000              add [bx+si],al
000028A3  0000              add [bx+si],al
000028A5  0000              add [bx+si],al
000028A7  0000              add [bx+si],al
000028A9  0000              add [bx+si],al
000028AB  0000              add [bx+si],al
000028AD  0000              add [bx+si],al
000028AF  0000              add [bx+si],al
000028B1  0001              add [bx+di],al
000028B3  0202              add al,[bp+si]
000028B5  0404              add al,0x4
000028B7  080C              or [si],cl
000028B9  0A18              or bl,[bx+si]
000028BB  1E                push ds
000028BC  687087            push word 0x8770
000028BF  C006800900        rol byte [0x980],byte 0x0
000028C4  1200              adc al,[bx+si]
000028C6  2400              and al,0x0
000028C8  3800              cmp [bx+si],al
000028CA  0000              add [bx+si],al
000028CC  0000              add [bx+si],al
000028CE  007000            add [bx+si+0x0],dh
000028D1  90                nop
000028D2  0120              add [bx+si],sp
000028D4  017802            add [bx+si+0x2],di
000028D7  8805              mov [di],al
000028D9  3007              xor [bx],al
000028DB  C01820            rcr byte [bx+si],byte 0x20
000028DE  F01F              lock pop ds
000028E0  0000              add [bx+si],al
000028E2  0000              add [bx+si],al
000028E4  0000              add [bx+si],al
000028E6  0000              add [bx+si],al
000028E8  0000              add [bx+si],al
000028EA  0000              add [bx+si],al
000028EC  0000              add [bx+si],al
000028EE  0000              add [bx+si],al
000028F0  0000              add [bx+si],al
000028F2  00E0              add al,ah
000028F4  0120              add [bx+si],sp
000028F6  0220              add ah,[bx+si]
000028F8  024003            add al,[bx+si+0x3]
000028FB  800600F9FF        add byte [0xf900],0xff
00002900  0000              add [bx+si],al
00002902  0000              add [bx+si],al
00002904  0000              add [bx+si],al
00002906  0000              add [bx+si],al
00002908  0000              add [bx+si],al
0000290A  0000              add [bx+si],al
0000290C  0000              add [bx+si],al
0000290E  FA                cli
0000290F  B80000            mov ax,0x0
00002912  8EC0              mov es,ax
00002914  B8F048            mov ax,0x48f0
00002917  26A37000          mov [es:0x70],ax
0000291B  FB                sti
0000291C  B91400            mov cx,0x14
0000291F  BFAE29            mov di,0x29ae
00002922  0E                push cs
00002923  07                pop es
00002924  B000              mov al,0x0
00002926  FC                cld
00002927  F3AA              rep stosb
00002929  B000              mov al,0x0
0000292B  E6A0              out 0xa0,al
0000292D  E461              in al,0x61
0000292F  0C30              or al,0x30
00002931  E661              out 0x61,al
00002933  E461              in al,0x61
00002935  24CF              and al,0xcf
00002937  E661              out 0x61,al
00002939  E8051F            call 0x4841
0000293C  E88F1E            call 0x47ce
0000293F  A1ED4F            mov ax,[0x4fed]
00002942  BB2300            mov bx,0x23
00002945  F7E3              mul bx
00002947  B364              mov bl,0x64
00002949  F6F3              div bl
0000294B  B400              mov ah,0x0
0000294D  F6F3              div bl
0000294F  0430              add al,0x30
00002951  A2372C            mov [0x2c37],al
00002954  803E372C30        cmp byte [0x2c37],0x30
00002959  7505              jnz 0x2960
0000295B  C606372C20        mov byte [0x2c37],0x20
00002960  8AC4              mov al,ah
00002962  B400              mov ah,0x0
00002964  B30A              mov bl,0xa
00002966  F6F3              div bl
00002968  053030            add ax,0x3030
0000296B  A3382C            mov [0x2c38],ax
0000296E  BA0F04            mov dx,0x40f
00002971  E8D71D            call 0x474b
00002974  BF1C2C            mov di,0x2c1c
00002977  E8DA1D            call 0x4754
0000297A  BA2305            mov dx,0x523
0000297D  E8CB1D            call 0x474b
00002980  BF4F2C            mov di,0x2c4f
00002983  E8CE1D            call 0x4754
00002986  8C0E6A2A          mov [0x2a6a],cs
0000298A  B83A2B            mov ax,0x2b3a
0000298D  A3682A            mov [0x2a68],ax
00002990  FC                cld
00002991  BEAE29            mov si,0x29ae
00002994  BF3A2B            mov di,0x2b3a
00002997  2BFE              sub di,si
00002999  8BCF              mov cx,di
0000299B  BF0000            mov di,0x0
0000299E  B800BC            mov ax,0xbc00
000029A1  8EC0              mov es,ax
000029A3  F3A4              rep movsb
000029A5  2EFF2EAA29        jmp far [cs:0x29aa]
000029AA  BE0000            mov si,0x0
000029AD  BC0000            mov sp,0x0
000029B0  0000              add [bx+si],al
000029B2  0000              add [bx+si],al
000029B4  0000              add [bx+si],al
000029B6  0000              add [bx+si],al
000029B8  0000              add [bx+si],al
000029BA  0000              add [bx+si],al
000029BC  0000              add [bx+si],al
000029BE  0000              add [bx+si],al
000029C0  0000              add [bx+si],al
000029C2  0000              add [bx+si],al
000029C4  0000              add [bx+si],al
000029C6  0000              add [bx+si],al
000029C8  0000              add [bx+si],al
000029CA  0000              add [bx+si],al
000029CC  0000              add [bx+si],al
000029CE  0000              add [bx+si],al
000029D0  0000              add [bx+si],al
000029D2  0000              add [bx+si],al
000029D4  0000              add [bx+si],al
000029D6  0000              add [bx+si],al
000029D8  0000              add [bx+si],al
000029DA  0000              add [bx+si],al
000029DC  0000              add [bx+si],al
000029DE  0000              add [bx+si],al
000029E0  0000              add [bx+si],al
000029E2  0000              add [bx+si],al
000029E4  0000              add [bx+si],al
000029E6  0000              add [bx+si],al
000029E8  0000              add [bx+si],al
000029EA  0000              add [bx+si],al
000029EC  0000              add [bx+si],al
000029EE  0000              add [bx+si],al
000029F0  0000              add [bx+si],al
000029F2  0000              add [bx+si],al
000029F4  0000              add [bx+si],al
000029F6  0000              add [bx+si],al
000029F8  0000              add [bx+si],al
000029FA  0000              add [bx+si],al
000029FC  0000              add [bx+si],al
000029FE  0000              add [bx+si],al
00002A00  0000              add [bx+si],al
00002A02  0000              add [bx+si],al
00002A04  0000              add [bx+si],al
00002A06  0000              add [bx+si],al
00002A08  0000              add [bx+si],al
00002A0A  0000              add [bx+si],al
00002A0C  0000              add [bx+si],al
00002A0E  0000              add [bx+si],al
00002A10  0000              add [bx+si],al
00002A12  0000              add [bx+si],al
00002A14  0000              add [bx+si],al
00002A16  0000              add [bx+si],al
00002A18  0000              add [bx+si],al
00002A1A  0000              add [bx+si],al
00002A1C  0000              add [bx+si],al
00002A1E  0000              add [bx+si],al
00002A20  0000              add [bx+si],al
00002A22  0000              add [bx+si],al
00002A24  0000              add [bx+si],al
00002A26  0000              add [bx+si],al
00002A28  0000              add [bx+si],al
00002A2A  0000              add [bx+si],al
00002A2C  0000              add [bx+si],al
00002A2E  0000              add [bx+si],al
00002A30  0000              add [bx+si],al
00002A32  0000              add [bx+si],al
00002A34  0000              add [bx+si],al
00002A36  0000              add [bx+si],al
00002A38  0000              add [bx+si],al
00002A3A  0000              add [bx+si],al
00002A3C  0000              add [bx+si],al
00002A3E  0000              add [bx+si],al
00002A40  0000              add [bx+si],al
00002A42  0000              add [bx+si],al
00002A44  0000              add [bx+si],al
00002A46  0000              add [bx+si],al
00002A48  0000              add [bx+si],al
00002A4A  0000              add [bx+si],al
00002A4C  0000              add [bx+si],al
00002A4E  0000              add [bx+si],al
00002A50  0000              add [bx+si],al
00002A52  0000              add [bx+si],al
00002A54  0000              add [bx+si],al
00002A56  0000              add [bx+si],al
00002A58  0000              add [bx+si],al
00002A5A  0000              add [bx+si],al
00002A5C  0000              add [bx+si],al
00002A5E  0000              add [bx+si],al
00002A60  0000              add [bx+si],al
00002A62  0000              add [bx+si],al
00002A64  0000              add [bx+si],al
00002A66  0000              add [bx+si],al
00002A68  0000              add [bx+si],al
00002A6A  0000              add [bx+si],al
00002A6C  FA                cli
00002A6D  BF1400            mov di,0x14
00002A70  2E8C15            mov [cs:di],ss
00002A73  2E896502          mov [cs:di+0x2],sp
00002A77  BCB800            mov sp,0xb8
00002A7A  8CC8              mov ax,cs
00002A7C  8ED0              mov ss,ax
00002A7E  FB                sti
00002A7F  BD0000            mov bp,0x0
00002A82  B80000            mov ax,0x0
00002A85  8EC0              mov es,ax
00002A87  8CC7              mov di,es
00002A89  B94000            mov cx,0x40
00002A8C  BBFF03            mov bx,0x3ff
00002A8F  B8AA55            mov ax,0x55aa
00002A92  FA                cli
00002A93  268A17            mov dl,[es:bx]
00002A96  268807            mov [es:bx],al
00002A99  263207            xor al,[es:bx]
00002A9C  2E08450A          or [cs:di+0xa],al
00002AA0  268037FF          xor byte [es:bx],0xff
00002AA4  263227            xor ah,[es:bx]
00002AA7  2E08650A          or [cs:di+0xa],ah
00002AAB  3D0000            cmp ax,0x0
00002AAE  9C                pushf
00002AAF  E461              in al,0x61
00002AB1  0C30              or al,0x30
00002AB3  E661              out 0x61,al
00002AB5  E461              in al,0x61
00002AB7  24CF              and al,0xcf
00002AB9  E661              out 0x61,al
00002ABB  9D                popf
00002ABC  7516              jnz 0x2ad4
00002ABE  26C60700          mov byte [es:bx],0x0
00002AC2  26803F00          cmp byte [es:bx],0x0
00002AC6  E85600            call 0x2b1f
00002AC9  26C60701          mov byte [es:bx],0x1
00002ACD  26803F01          cmp byte [es:bx],0x1
00002AD1  E84B00            call 0x2b1f
00002AD4  268817            mov [es:bx],dl
00002AD7  FB                sti
00002AD8  4B                dec bx
00002AD9  83FBFF            cmp bx,byte -0x1
00002ADC  7402              jz 0x2ae0
00002ADE  EBAF              jmp short 0x2a8f
00002AE0  45                inc bp
00002AE1  3B2EED4F          cmp bp,[0x4fed]
00002AE5  7412              jz 0x2af9
00002AE7  8CC0              mov ax,es
00002AE9  054000            add ax,0x40
00002AEC  8EC0              mov es,ax
00002AEE  49                dec cx
00002AEF  7402              jz 0x2af3
00002AF1  EB99              jmp short 0x2a8c
00002AF3  47                inc di
00002AF4  B94000            mov cx,0x40
00002AF7  EB93              jmp short 0x2a8c
00002AF9  FA                cli
00002AFA  BE0000            mov si,0x0
00002AFD  B91400            mov cx,0x14
00002B00  BFAE29            mov di,0x29ae
00002B03  0E                push cs
00002B04  07                pop es
00002B05  268A04            mov al,[es:si]
00002B08  8805              mov [di],al
00002B0A  46                inc si
00002B0B  47                inc di
00002B0C  E2F7              loop 0x2b05
00002B0E  BF1400            mov di,0x14
00002B11  2E8E15            mov ss,[cs:di]
00002B14  2E8B6502          mov sp,[cs:di+0x2]
00002B18  BEBA00            mov si,0xba
00002B1B  FB                sti
00002B1C  2EFF2C            jmp far [cs:si]
00002B1F  E462              in al,0x62
00002B21  A840              test al,0x40
00002B23  7504              jnz 0x2b29
00002B25  A880              test al,0x80
00002B27  7404              jz 0x2b2d
00002B29  2E800DFF          or byte [cs:di],0xff
00002B2D  E461              in al,0x61
00002B2F  0C30              or al,0x30
00002B31  E661              out 0x61,al
00002B33  E461              in al,0x61
00002B35  24CF              and al,0xcf
00002B37  E661              out 0x61,al
00002B39  C3                ret
00002B3A  FA                cli
00002B3B  B80000            mov ax,0x0
00002B3E  8EC0              mov es,ax
00002B40  B8F148            mov ax,0x48f1
00002B43  26A37000          mov [es:0x70],ax
00002B47  FB                sti
00002B48  E8F61C            call 0x4841
00002B4B  B90A00            mov cx,0xa
00002B4E  BFAE29            mov di,0x29ae
00002B51  803D00            cmp byte [di],0x0
00002B54  7539              jnz 0x2b8f
00002B56  807D0A00          cmp byte [di+0xa],0x0
00002B5A  7533              jnz 0x2b8f
00002B5C  47                inc di
00002B5D  E2F2              loop 0x2b51
00002B5F  BA1E05            mov dx,0x51e
00002B62  E8E61B            call 0x474b
00002B65  BF5C2C            mov di,0x2c5c
00002B68  E8E91B            call 0x4754
00002B6B  BF0C50            mov di,0x500c
00002B6E  E8501C            call 0x47c1
00002B71  E8681C            call 0x47dc
00002B74  80FC4E            cmp ah,0x4e
00002B77  740B              jz 0x2b84
00002B79  BE4852            mov si,0x5248
00002B7C  E8761C            call 0x47f5
00002B7F  E8931C            call 0x4815
00002B82  EBED              jmp short 0x2b71
00002B84  BE7052            mov si,0x5270
00002B87  E86B1C            call 0x47f5
00002B8A  B080              mov al,0x80
00002B8C  E6A0              out 0xa0,al
00002B8E  C3                ret
00002B8F  BA1E05            mov dx,0x51e
00002B92  E8B61B            call 0x474b
00002B95  BF742C            mov di,0x2c74
00002B98  E8B91B            call 0x4754
00002B9B  BA0007            mov dx,0x700
00002B9E  E8AA1B            call 0x474b
00002BA1  BF8B2C            mov di,0x2c8b
00002BA4  E8AD1B            call 0x4754
00002BA7  B100              mov cl,0x0
00002BA9  B301              mov bl,0x1
00002BAB  C6065B2C00        mov byte [0x2c5b],0x0
00002BB0  32ED              xor ch,ch
00002BB2  8BE9              mov bp,cx
00002BB4  8A86B829          mov al,[bp+0x29b8]
00002BB8  A8FF              test al,0xff
00002BBA  7412              jz 0x2bce
00002BBC  84C3              test bl,al
00002BBE  7403              jz 0x2bc3
00002BC0  E82F00            call 0x2bf2
00002BC3  FE065B2C          inc byte [0x2c5b]
00002BC7  D0E3              shl bl,1
00002BC9  80FB00            cmp bl,0x0
00002BCC  75E4              jnz 0x2bb2
00002BCE  FEC1              inc cl
00002BD0  80F90A            cmp cl,0xa
00002BD3  75D4              jnz 0x2ba9
00002BD5  BF0000            mov di,0x0
00002BD8  80BDAE2900        cmp byte [di+0x29ae],0x0
00002BDD  740A              jz 0x2be9
00002BDF  C6065B2C08        mov byte [0x2c5b],0x8
00002BE4  8BCF              mov cx,di
00002BE6  E80900            call 0x2bf2
00002BE9  47                inc di
00002BEA  83FF0A            cmp di,byte +0xa
00002BED  75E9              jnz 0x2bd8
00002BEF  E979FF            jmp 0x2b6b
00002BF2  50                push ax
00002BF3  53                push bx
00002BF4  51                push cx
00002BF5  52                push dx
00002BF6  B21D              mov dl,0x1d
00002BF8  B004              mov al,0x4
00002BFA  F6265B2C          mul byte [0x2c5b]
00002BFE  02D0              add dl,al
00002C00  80C108            add cl,0x8
00002C03  8AF1              mov dh,cl
00002C05  E8431B            call 0x474b
00002C08  B90100            mov cx,0x1
00002C0B  B409              mov ah,0x9
00002C0D  B058              mov al,0x58
00002C0F  B307              mov bl,0x7
00002C11  8A3EE94F          mov bh,[0x4fe9]
00002C15  CD10              int 0x10
00002C17  5A                pop dx
00002C18  59                pop cx
00002C19  5B                pop bx
00002C1A  58                pop ax
00002C1B  C3                ret
00002C1C  055468            add ax,0x6854
00002C1F  6973207465        imul si,[bp+di+0x20],word 0x6574
00002C24  7374              jnc 0x2c9a
00002C26  207769            and [bx+0x69],dh
00002C29  6C                insb
00002C2A  6C                insb
00002C2B  207461            and [si+0x61],dh
00002C2E  6B652061          imul sp,[di+0x20],byte +0x61
00002C32  626F75            bound bp,[bx+0x75]
00002C35  7420              jz 0x2c57
00002C37  2020              and [bx+si],ah
00002C39  2020              and [bx+si],ah
00002C3B  53                push bx
00002C3C  45                inc bp
00002C3D  43                inc bx
00002C3E  4F                dec di
00002C3F  4E                dec si
00002C40  44                inc sp
00002C41  53                push bx
00002C42  20746F            and [si+0x6f],dh
00002C45  20636F            and [bp+di+0x6f],ah
00002C48  6D                insw
00002C49  706C              jo 0x2cb7
00002C4B  657465            gs jz 0x2cb3
00002C4E  00865445          add [bp+0x4554],al
00002C52  53                push bx
00002C53  54                push sp
00002C54  49                dec cx
00002C55  4E                dec si
00002C56  47                inc di
00002C57  2E2E2E0000        add [cs:bx+si],al
00002C5C  07                pop es
00002C5D  4D                dec bp
00002C5E  45                inc bp
00002C5F  4D                dec bp
00002C60  4F                dec di
00002C61  52                push dx
00002C62  59                pop cx
00002C63  205445            and [si+0x45],dl
00002C66  53                push bx
00002C67  54                push sp
00002C68  240A              and al,0xa
00002C6A  205041            and [bx+si+0x41],dl
00002C6D  53                push bx
00002C6E  53                push bx
00002C6F  45                inc bp
00002C70  44                inc sp
00002C71  0D0D00            or ax,0xd
00002C74  07                pop es
00002C75  4D                dec bp
00002C76  45                inc bp
00002C77  4D                dec bp
00002C78  4F                dec di
00002C79  52                push dx
00002C7A  59                pop cx
00002C7B  205445            and [si+0x45],dl
00002C7E  53                push bx
00002C7F  54                push sp
00002C80  2406              and al,0x6
00002C82  204641            and [bp+0x41],al
00002C85  49                dec cx
00002C86  4C                dec sp
00002C87  45                inc bp
00002C88  44                inc sp
00002C89  0D000E            or ax,0xe00
00002C8C  2020              and [bx+si],ah
00002C8E  2020              and [bx+si],ah
00002C90  2020              and [bx+si],ah
00002C92  2020              and [bx+si],ah
00002C94  2020              and [bx+si],ah
00002C96  2020              and [bx+si],ah
00002C98  2020              and [bx+si],ah
00002C9A  2020              and [bx+si],ah
00002C9C  2020              and [bx+si],ah
00002C9E  2020              and [bx+si],ah
00002CA0  2020              and [bx+si],ah
00002CA2  2020              and [bx+si],ah
00002CA4  2020              and [bx+si],ah
00002CA6  2020              and [bx+si],ah
00002CA8  2030              and [bx+si],dh
00002CAA  2020              and [bx+si],ah
00002CAC  2031              and [bx+di],dh
00002CAE  2020              and [bx+si],ah
00002CB0  2032              and [bp+si],dh
00002CB2  2020              and [bx+si],ah
00002CB4  2033              and [bp+di],dh
00002CB6  2020              and [bx+si],ah
00002CB8  2034              and [si],dh
00002CBA  2020              and [bx+si],ah
00002CBC  2035              and [di],dh
00002CBE  2020              and [bx+si],ah
00002CC0  20362020          and [0x2020],dh
00002CC4  2037              and [bx],dh
00002CC6  2020              and [bx+si],ah
00002CC8  20500D            and [bx+si+0xd],dl
00002CCB  2020              and [bx+si],ah
00002CCD  2020              and [bx+si],ah
00002CCF  2020              and [bx+si],ah
00002CD1  2020              and [bx+si],ah
00002CD3  2020              and [bx+si],ah
00002CD5  2020              and [bx+si],ah
00002CD7  2020              and [bx+si],ah
00002CD9  2020              and [bx+si],ah
00002CDB  2020              and [bx+si],ah
00002CDD  53                push bx
00002CDE  45                inc bp
00002CDF  47                inc di
00002CE0  4D                dec bp
00002CE1  45                inc bp
00002CE2  4E                dec si
00002CE3  54                push sp
00002CE4  2030              and [bx+si],dh
00002CE6  2020              and [bx+si],ah
00002CE8  2020              and [bx+si],ah
00002CEA  B320              mov bl,0x20
00002CEC  2020              and [bx+si],ah
00002CEE  B320              mov bl,0x20
00002CF0  2020              and [bx+si],ah
00002CF2  B320              mov bl,0x20
00002CF4  2020              and [bx+si],ah
00002CF6  B320              mov bl,0x20
00002CF8  2020              and [bx+si],ah
00002CFA  B320              mov bl,0x20
00002CFC  2020              and [bx+si],ah
00002CFE  B320              mov bl,0x20
00002D00  2020              and [bx+si],ah
00002D02  B320              mov bl,0x20
00002D04  2020              and [bx+si],ah
00002D06  B320              mov bl,0x20
00002D08  2020              and [bx+si],ah
00002D0A  B30D              mov bl,0xd
00002D0C  2020              and [bx+si],ah
00002D0E  2020              and [bx+si],ah
00002D10  2020              and [bx+si],ah
00002D12  2020              and [bx+si],ah
00002D14  2020              and [bx+si],ah
00002D16  2020              and [bx+si],ah
00002D18  2020              and [bx+si],ah
00002D1A  2020              and [bx+si],ah
00002D1C  2020              and [bx+si],ah
00002D1E  53                push bx
00002D1F  45                inc bp
00002D20  47                inc di
00002D21  4D                dec bp
00002D22  45                inc bp
00002D23  4E                dec si
00002D24  54                push sp
00002D25  2031              and [bx+di],dh
00002D27  2020              and [bx+si],ah
00002D29  2020              and [bx+si],ah
00002D2B  B320              mov bl,0x20
00002D2D  2020              and [bx+si],ah
00002D2F  B320              mov bl,0x20
00002D31  2020              and [bx+si],ah
00002D33  B320              mov bl,0x20
00002D35  2020              and [bx+si],ah
00002D37  B320              mov bl,0x20
00002D39  2020              and [bx+si],ah
00002D3B  B320              mov bl,0x20
00002D3D  2020              and [bx+si],ah
00002D3F  B320              mov bl,0x20
00002D41  2020              and [bx+si],ah
00002D43  B320              mov bl,0x20
00002D45  2020              and [bx+si],ah
00002D47  B320              mov bl,0x20
00002D49  2020              and [bx+si],ah
00002D4B  B30D              mov bl,0xd
00002D4D  2020              and [bx+si],ah
00002D4F  2020              and [bx+si],ah
00002D51  2020              and [bx+si],ah
00002D53  2020              and [bx+si],ah
00002D55  2020              and [bx+si],ah
00002D57  2020              and [bx+si],ah
00002D59  2020              and [bx+si],ah
00002D5B  2020              and [bx+si],ah
00002D5D  2020              and [bx+si],ah
00002D5F  53                push bx
00002D60  45                inc bp
00002D61  47                inc di
00002D62  4D                dec bp
00002D63  45                inc bp
00002D64  4E                dec si
00002D65  54                push sp
00002D66  2032              and [bp+si],dh
00002D68  2020              and [bx+si],ah
00002D6A  2020              and [bx+si],ah
00002D6C  B320              mov bl,0x20
00002D6E  2020              and [bx+si],ah
00002D70  B320              mov bl,0x20
00002D72  2020              and [bx+si],ah
00002D74  B320              mov bl,0x20
00002D76  2020              and [bx+si],ah
00002D78  B320              mov bl,0x20
00002D7A  2020              and [bx+si],ah
00002D7C  B320              mov bl,0x20
00002D7E  2020              and [bx+si],ah
00002D80  B320              mov bl,0x20
00002D82  2020              and [bx+si],ah
00002D84  B320              mov bl,0x20
00002D86  2020              and [bx+si],ah
00002D88  B320              mov bl,0x20
00002D8A  2020              and [bx+si],ah
00002D8C  B30D              mov bl,0xd
00002D8E  2020              and [bx+si],ah
00002D90  2020              and [bx+si],ah
00002D92  2020              and [bx+si],ah
00002D94  2020              and [bx+si],ah
00002D96  2020              and [bx+si],ah
00002D98  2020              and [bx+si],ah
00002D9A  2020              and [bx+si],ah
00002D9C  2020              and [bx+si],ah
00002D9E  2020              and [bx+si],ah
00002DA0  53                push bx
00002DA1  45                inc bp
00002DA2  47                inc di
00002DA3  4D                dec bp
00002DA4  45                inc bp
00002DA5  4E                dec si
00002DA6  54                push sp
00002DA7  2033              and [bp+di],dh
00002DA9  2020              and [bx+si],ah
00002DAB  2020              and [bx+si],ah
00002DAD  B320              mov bl,0x20
00002DAF  2020              and [bx+si],ah
00002DB1  B320              mov bl,0x20
00002DB3  2020              and [bx+si],ah
00002DB5  B320              mov bl,0x20
00002DB7  2020              and [bx+si],ah
00002DB9  B320              mov bl,0x20
00002DBB  2020              and [bx+si],ah
00002DBD  B320              mov bl,0x20
00002DBF  2020              and [bx+si],ah
00002DC1  B320              mov bl,0x20
00002DC3  2020              and [bx+si],ah
00002DC5  B320              mov bl,0x20
00002DC7  2020              and [bx+si],ah
00002DC9  B320              mov bl,0x20
00002DCB  2020              and [bx+si],ah
00002DCD  B30D              mov bl,0xd
00002DCF  2020              and [bx+si],ah
00002DD1  2020              and [bx+si],ah
00002DD3  2020              and [bx+si],ah
00002DD5  2020              and [bx+si],ah
00002DD7  2020              and [bx+si],ah
00002DD9  2020              and [bx+si],ah
00002DDB  2020              and [bx+si],ah
00002DDD  2020              and [bx+si],ah
00002DDF  2020              and [bx+si],ah
00002DE1  53                push bx
00002DE2  45                inc bp
00002DE3  47                inc di
00002DE4  4D                dec bp
00002DE5  45                inc bp
00002DE6  4E                dec si
00002DE7  54                push sp
00002DE8  2034              and [si],dh
00002DEA  2020              and [bx+si],ah
00002DEC  2020              and [bx+si],ah
00002DEE  B320              mov bl,0x20
00002DF0  2020              and [bx+si],ah
00002DF2  B320              mov bl,0x20
00002DF4  2020              and [bx+si],ah
00002DF6  B320              mov bl,0x20
00002DF8  2020              and [bx+si],ah
00002DFA  B320              mov bl,0x20
00002DFC  2020              and [bx+si],ah
00002DFE  B320              mov bl,0x20
00002E00  2020              and [bx+si],ah
00002E02  B320              mov bl,0x20
00002E04  2020              and [bx+si],ah
00002E06  B320              mov bl,0x20
00002E08  2020              and [bx+si],ah
00002E0A  B320              mov bl,0x20
00002E0C  2020              and [bx+si],ah
00002E0E  B30D              mov bl,0xd
00002E10  2020              and [bx+si],ah
00002E12  2020              and [bx+si],ah
00002E14  2020              and [bx+si],ah
00002E16  2020              and [bx+si],ah
00002E18  2020              and [bx+si],ah
00002E1A  2020              and [bx+si],ah
00002E1C  2020              and [bx+si],ah
00002E1E  2020              and [bx+si],ah
00002E20  2020              and [bx+si],ah
00002E22  53                push bx
00002E23  45                inc bp
00002E24  47                inc di
00002E25  4D                dec bp
00002E26  45                inc bp
00002E27  4E                dec si
00002E28  54                push sp
00002E29  2035              and [di],dh
00002E2B  2020              and [bx+si],ah
00002E2D  2020              and [bx+si],ah
00002E2F  B320              mov bl,0x20
00002E31  2020              and [bx+si],ah
00002E33  B320              mov bl,0x20
00002E35  2020              and [bx+si],ah
00002E37  B320              mov bl,0x20
00002E39  2020              and [bx+si],ah
00002E3B  B320              mov bl,0x20
00002E3D  2020              and [bx+si],ah
00002E3F  B320              mov bl,0x20
00002E41  2020              and [bx+si],ah
00002E43  B320              mov bl,0x20
00002E45  2020              and [bx+si],ah
00002E47  B320              mov bl,0x20
00002E49  2020              and [bx+si],ah
00002E4B  B320              mov bl,0x20
00002E4D  2020              and [bx+si],ah
00002E4F  B30D              mov bl,0xd
00002E51  2020              and [bx+si],ah
00002E53  2020              and [bx+si],ah
00002E55  2020              and [bx+si],ah
00002E57  2020              and [bx+si],ah
00002E59  2020              and [bx+si],ah
00002E5B  2020              and [bx+si],ah
00002E5D  2020              and [bx+si],ah
00002E5F  2020              and [bx+si],ah
00002E61  2020              and [bx+si],ah
00002E63  53                push bx
00002E64  45                inc bp
00002E65  47                inc di
00002E66  4D                dec bp
00002E67  45                inc bp
00002E68  4E                dec si
00002E69  54                push sp
00002E6A  20362020          and [0x2020],dh
00002E6E  2020              and [bx+si],ah
00002E70  B320              mov bl,0x20
00002E72  2020              and [bx+si],ah
00002E74  B320              mov bl,0x20
00002E76  2020              and [bx+si],ah
00002E78  B320              mov bl,0x20
00002E7A  2020              and [bx+si],ah
00002E7C  B320              mov bl,0x20
00002E7E  2020              and [bx+si],ah
00002E80  B320              mov bl,0x20
00002E82  2020              and [bx+si],ah
00002E84  B320              mov bl,0x20
00002E86  2020              and [bx+si],ah
00002E88  B320              mov bl,0x20
00002E8A  2020              and [bx+si],ah
00002E8C  B320              mov bl,0x20
00002E8E  2020              and [bx+si],ah
00002E90  B30D              mov bl,0xd
00002E92  2020              and [bx+si],ah
00002E94  2020              and [bx+si],ah
00002E96  2020              and [bx+si],ah
00002E98  2020              and [bx+si],ah
00002E9A  2020              and [bx+si],ah
00002E9C  2020              and [bx+si],ah
00002E9E  2020              and [bx+si],ah
00002EA0  2020              and [bx+si],ah
00002EA2  2020              and [bx+si],ah
00002EA4  53                push bx
00002EA5  45                inc bp
00002EA6  47                inc di
00002EA7  4D                dec bp
00002EA8  45                inc bp
00002EA9  4E                dec si
00002EAA  54                push sp
00002EAB  2037              and [bx],dh
00002EAD  2020              and [bx+si],ah
00002EAF  2020              and [bx+si],ah
00002EB1  B320              mov bl,0x20
00002EB3  2020              and [bx+si],ah
00002EB5  B320              mov bl,0x20
00002EB7  2020              and [bx+si],ah
00002EB9  B320              mov bl,0x20
00002EBB  2020              and [bx+si],ah
00002EBD  B320              mov bl,0x20
00002EBF  2020              and [bx+si],ah
00002EC1  B320              mov bl,0x20
00002EC3  2020              and [bx+si],ah
00002EC5  B320              mov bl,0x20
00002EC7  2020              and [bx+si],ah
00002EC9  B320              mov bl,0x20
00002ECB  2020              and [bx+si],ah
00002ECD  B320              mov bl,0x20
00002ECF  2020              and [bx+si],ah
00002ED1  B30D              mov bl,0xd
00002ED3  2020              and [bx+si],ah
00002ED5  2020              and [bx+si],ah
00002ED7  2020              and [bx+si],ah
00002ED9  2020              and [bx+si],ah
00002EDB  2020              and [bx+si],ah
00002EDD  2020              and [bx+si],ah
00002EDF  2020              and [bx+si],ah
00002EE1  2020              and [bx+si],ah
00002EE3  2020              and [bx+si],ah
00002EE5  53                push bx
00002EE6  45                inc bp
00002EE7  47                inc di
00002EE8  4D                dec bp
00002EE9  45                inc bp
00002EEA  4E                dec si
00002EEB  54                push sp
00002EEC  2038              and [bx+si],bh
00002EEE  2020              and [bx+si],ah
00002EF0  2020              and [bx+si],ah
00002EF2  B320              mov bl,0x20
00002EF4  2020              and [bx+si],ah
00002EF6  B320              mov bl,0x20
00002EF8  2020              and [bx+si],ah
00002EFA  B320              mov bl,0x20
00002EFC  2020              and [bx+si],ah
00002EFE  B320              mov bl,0x20
00002F00  2020              and [bx+si],ah
00002F02  B320              mov bl,0x20
00002F04  2020              and [bx+si],ah
00002F06  B320              mov bl,0x20
00002F08  2020              and [bx+si],ah
00002F0A  B320              mov bl,0x20
00002F0C  2020              and [bx+si],ah
00002F0E  B320              mov bl,0x20
00002F10  2020              and [bx+si],ah
00002F12  B30D              mov bl,0xd
00002F14  2020              and [bx+si],ah
00002F16  2020              and [bx+si],ah
00002F18  2020              and [bx+si],ah
00002F1A  2020              and [bx+si],ah
00002F1C  2020              and [bx+si],ah
00002F1E  2020              and [bx+si],ah
00002F20  2020              and [bx+si],ah
00002F22  2020              and [bx+si],ah
00002F24  2020              and [bx+si],ah
00002F26  53                push bx
00002F27  45                inc bp
00002F28  47                inc di
00002F29  4D                dec bp
00002F2A  45                inc bp
00002F2B  4E                dec si
00002F2C  54                push sp
00002F2D  2039              and [bx+di],bh
00002F2F  2020              and [bx+si],ah
00002F31  2020              and [bx+si],ah
00002F33  B320              mov bl,0x20
00002F35  2020              and [bx+si],ah
00002F37  B320              mov bl,0x20
00002F39  2020              and [bx+si],ah
00002F3B  B320              mov bl,0x20
00002F3D  2020              and [bx+si],ah
00002F3F  B320              mov bl,0x20
00002F41  2020              and [bx+si],ah
00002F43  B320              mov bl,0x20
00002F45  2020              and [bx+si],ah
00002F47  B320              mov bl,0x20
00002F49  2020              and [bx+si],ah
00002F4B  B320              mov bl,0x20
00002F4D  2020              and [bx+si],ah
00002F4F  B320              mov bl,0x20
00002F51  2020              and [bx+si],ah
00002F53  B30D              mov bl,0xd
00002F55  0D2020            or ax,0x2020
00002F58  2020              and [bx+si],ah
00002F5A  2020              and [bx+si],ah
00002F5C  2020              and [bx+si],ah
00002F5E  2020              and [bx+si],ah
00002F60  2020              and [bx+si],ah
00002F62  2020              and [bx+si],ah
00002F64  2020              and [bx+si],ah
00002F66  2020              and [bx+si],ah
00002F68  2020              and [bx+si],ah
00002F6A  2020              and [bx+si],ah
00002F6C  2020              and [bx+si],ah
00002F6E  2020              and [bx+si],ah
00002F70  2020              and [bx+si],ah
00002F72  2020              and [bx+si],ah
00002F74  52                push dx
00002F75  45                inc bp
00002F76  50                push ax
00002F77  4C                dec sp
00002F78  41                inc cx
00002F79  43                inc bx
00002F7A  45                inc bp
00002F7B  205448            and [si+0x48],dl
00002F7E  45                inc bp
00002F7F  53                push bx
00002F80  45                inc bp
00002F81  204348            and [bp+di+0x48],al
00002F84  49                dec cx
00002F85  50                push ax
00002F86  53                push bx
00002F87  2021              and [bx+di],ah
00002F89  00E8              add al,ch
00002F8B  B418              mov ah,0x18
00002F8D  B90002            mov cx,0x200
00002F90  32C0              xor al,al
00002F92  BF4850            mov di,0x5048
00002F95  8805              mov [di],al
00002F97  FEC0              inc al
00002F99  47                inc di
00002F9A  E2F9              loop 0x2f95
00002F9C  BA1308            mov dx,0x813
00002F9F  E8A917            call 0x474b
00002FA2  BF3035            mov di,0x3530
00002FA5  E8AC17            call 0x4754
00002FA8  E83803            call 0x32e3
00002FAB  803EF04F01        cmp byte [0x4ff0],0x1
00002FB0  743C              jz 0x2fee
00002FB2  BF9852            mov di,0x5298
00002FB5  E80918            call 0x47c1
00002FB8  E88618            call 0x4841
00002FBB  E89118            call 0x484f
00002FBE  BF5D35            mov di,0x355d
00002FC1  C606095002        mov byte [0x5009],0x2
00002FC6  C606085000        mov byte [0x5008],0x0
00002FCB  E88617            call 0x4754
00002FCE  E88518            call 0x4856
00002FD1  E88918            call 0x485d
00002FD4  E8A218            call 0x4879
00002FD7  8A260A50          mov ah,[0x500a]
00002FDB  FEC4              inc ah
00002FDD  88265F39          mov [0x395f],ah
00002FE1  80FC02            cmp ah,0x2
00002FE4  7508              jnz 0x2fee
00002FE6  C606603901        mov byte [0x3960],0x1
00002FEB  EB06              jmp short 0x2ff3
00002FED  90                nop
00002FEE  C606603900        mov byte [0x3960],0x0
00002FF3  B400              mov ah,0x0
00002FF5  B200              mov dl,0x0
00002FF7  CD13              int 0x13
00002FF9  E8D217            call 0x47ce
00002FFC  BE7052            mov si,0x5270
00002FFF  E8F317            call 0x47f5
00003002  C606613900        mov byte [0x3961],0x0
00003007  C606623900        mov byte [0x3962],0x0
0000300C  C606633901        mov byte [0x3963],0x1
00003011  E82D18            call 0x4841
00003014  C70664396639      mov word [0x3964],0x3966
0000301A  E8F302            call 0x3310
0000301D  7307              jnc 0x3026
0000301F  BEF32F            mov si,0x2ff3
00003022  56                push si
00003023  E85303            call 0x3379
00003026  FA                cli
00003027  B036              mov al,0x36
00003029  E643              out 0x43,al
0000302B  B000              mov al,0x0
0000302D  E640              out 0x40,al
0000302F  B008              mov al,0x8
00003031  E640              out 0x40,al
00003033  BAF203            mov dx,0x3f2
00003036  B00C              mov al,0xc
00003038  EE                out dx,al
00003039  FA                cli
0000303A  C6069B3900        mov byte [0x399b],0x0
0000303F  06                push es
00003040  33C0              xor ax,ax
00003042  8EC0              mov es,ax
00003044  26A13800          mov ax,[es:0x38]
00003048  A39C39            mov [0x399c],ax
0000304B  26A13A00          mov ax,[es:0x3a]
0000304F  A39E39            mov [0x399e],ax
00003052  26A12000          mov ax,[es:0x20]
00003056  A3A039            mov [0x39a0],ax
00003059  26A12200          mov ax,[es:0x22]
0000305D  A3A239            mov [0x39a2],ax
00003060  B82134            mov ax,0x3421
00003063  26A33800          mov [es:0x38],ax
00003067  268C0E3A00        mov [es:0x3a],cs
0000306C  B83934            mov ax,0x3439
0000306F  26A32000          mov [es:0x20],ax
00003073  268C0E2200        mov [es:0x22],cs
00003078  07                pop es
00003079  FB                sti
0000307A  B010              mov al,0x10
0000307C  8A0E6039          mov cl,[0x3960]
00003080  D2E0              shl al,cl
00003082  0A066039          or al,[0x3960]
00003086  0C0C              or al,0xc
00003088  BAF203            mov dx,0x3f2
0000308B  EE                out dx,al
0000308C  B90600            mov cx,0x6
0000308F  B462              mov ah,0x62
00003091  BE1D31            mov si,0x311d
00003094  56                push si
00003095  E8AC03            call 0x3444
00003098  8A266139          mov ah,[0x3961]
0000309C  D0E4              shl ah,1
0000309E  D0E4              shl ah,1
000030A0  0A266039          or ah,[0x3960]
000030A4  E89D03            call 0x3444
000030A7  B400              mov ah,0x0
000030A9  E89803            call 0x3444
000030AC  8A266139          mov ah,[0x3961]
000030B0  E89103            call 0x3444
000030B3  B40A              mov ah,0xa
000030B5  E88C03            call 0x3444
000030B8  B402              mov ah,0x2
000030BA  E88703            call 0x3444
000030BD  B40A              mov ah,0xa
000030BF  E88203            call 0x3444
000030C2  B42A              mov ah,0x2a
000030C4  E87D03            call 0x3444
000030C7  B4FF              mov ah,0xff
000030C9  E87803            call 0x3444
000030CC  5E                pop si
000030CD  51                push cx
000030CE  B304              mov bl,0x4
000030D0  33C9              xor cx,cx
000030D2  F6069B3980        test byte [0x399b],0x80
000030D7  750B              jnz 0x30e4
000030D9  E2F7              loop 0x30d2
000030DB  FECB              dec bl
000030DD  75F3              jnz 0x30d2
000030DF  C6069A3980        mov byte [0x399a],0x80
000030E4  80269B397F        and byte [0x399b],0x7f
000030E9  59                pop cx
000030EA  E87C03            call 0x3469
000030ED  E2A0              loop 0x308f
000030EF  E8B503            call 0x34a7
000030F2  B84502            mov ax,0x245
000030F5  BB3C00            mov bx,0x3c
000030F8  F7E3              mul bx
000030FA  F736A639          div word [0x39a6]
000030FE  3D3B01            cmp ax,0x13b
00003101  770B              ja 0x310e
00003103  3D1D01            cmp ax,0x11d
00003106  7206              jc 0x310e
00003108  BF1D38            mov di,0x381d
0000310B  EB04              jmp short 0x3111
0000310D  90                nop
0000310E  BF3938            mov di,0x3839
00003111  BA1B06            mov dx,0x61b
00003114  E83416            call 0x474b
00003117  E83A16            call 0x4754
0000311A  EB0E              jmp short 0x312a
0000311C  90                nop
0000311D  E84903            call 0x3469
00003120  E88403            call 0x34a7
00003123  BEF32F            mov si,0x2ff3
00003126  56                push si
00003127  E84F02            call 0x3379
0000312A  E8B601            call 0x32e3
0000312D  E81117            call 0x4841
00003130  E89B16            call 0x47ce
00003133  BA1D07            mov dx,0x71d
00003136  E81216            call 0x474b
00003139  BF5538            mov di,0x3855
0000313C  E81516            call 0x4754
0000313F  BA160A            mov dx,0xa16
00003142  E80616            call 0x474b
00003145  BF6D38            mov di,0x386d
00003148  E80916            call 0x4754
0000314B  32E4              xor ah,ah
0000314D  32D2              xor dl,dl
0000314F  CD13              int 0x13
00003151  E8BC01            call 0x3310
00003154  7217              jc 0x316d
00003156  E87903            call 0x34d2
00003159  E8F401            call 0x3350
0000315C  720F              jc 0x316d
0000315E  E8DA01            call 0x333b
00003161  720A              jc 0x316d
00003163  E8A003            call 0x3506
00003166  C6069A3912        mov byte [0x399a],0x12
0000316B  730C              jnc 0x3179
0000316D  C606633901        mov byte [0x3963],0x1
00003172  BE4B31            mov si,0x314b
00003175  56                push si
00003176  E80002            call 0x3379
00003179  803E633909        cmp byte [0x3963],0x9
0000317E  7406              jz 0x3186
00003180  FE066339          inc byte [0x3963]
00003184  EBD0              jmp short 0x3156
00003186  C606633901        mov byte [0x3963],0x1
0000318B  B87439            mov ax,0x3974
0000318E  3B066439          cmp ax,[0x3964]
00003192  7419              jz 0x31ad
00003194  FF066439          inc word [0x3964]
00003198  FF066439          inc word [0x3964]
0000319C  8B366439          mov si,[0x3964]
000031A0  8A04              mov al,[si]
000031A2  A26139            mov [0x3961],al
000031A5  8A4401            mov al,[si+0x1]
000031A8  A26239            mov [0x3962],al
000031AB  EBA4              jmp short 0x3151
000031AD  BA2008            mov dx,0x820
000031B0  E89815            call 0x474b
000031B3  BF4436            mov di,0x3644
000031B6  E89B15            call 0x4754
000031B9  803E5F3903        cmp byte [0x395f],0x3
000031BE  7511              jnz 0x31d1
000031C0  803E603901        cmp byte [0x3960],0x1
000031C5  740A              jz 0x31d1
000031C7  FE066039          inc byte [0x3960]
000031CB  E81501            call 0x32e3
000031CE  E922FE            jmp 0x2ff3
000031D1  803E5F3903        cmp byte [0x395f],0x3
000031D6  7403              jz 0x31db
000031D8  E90101            jmp 0x32dc
000031DB  E86316            call 0x4841
000031DE  BA1706            mov dx,0x617
000031E1  E86715            call 0x474b
000031E4  BF1C39            mov di,0x391c
000031E7  E86A15            call 0x4754
000031EA  BF0C50            mov di,0x500c
000031ED  E8D115            call 0x47c1
000031F0  E8E915            call 0x47dc
000031F3  80FC4E            cmp ah,0x4e
000031F6  740B              jz 0x3203
000031F8  BE4852            mov si,0x5248
000031FB  E8F715            call 0x47f5
000031FE  E81416            call 0x4815
00003201  EBED              jmp short 0x31f0
00003203  C606603900        mov byte [0x3960],0x0
00003208  C606613900        mov byte [0x3961],0x0
0000320D  C606633901        mov byte [0x3963],0x1
00003212  C606623900        mov byte [0x3962],0x0
00003217  C70664396639      mov word [0x3964],0x3966
0000321D  E8AE15            call 0x47ce
00003220  E81E16            call 0x4841
00003223  BE7052            mov si,0x5270
00003226  E8CC15            call 0x47f5
00003229  BA1907            mov dx,0x719
0000322C  E81C15            call 0x474b
0000322F  BF4039            mov di,0x3940
00003232  E81F15            call 0x4754
00003235  BA160A            mov dx,0xa16
00003238  E81015            call 0x474b
0000323B  BF6D38            mov di,0x386d
0000323E  E81315            call 0x4754
00003241  C606A83B03        mov byte [0x3ba8],0x3
00003246  32E4              xor ah,ah
00003248  32D2              xor dl,dl
0000324A  CD13              int 0x13
0000324C  E88302            call 0x34d2
0000324F  E8E900            call 0x333b
00003252  7309              jnc 0x325d
00003254  FE0EA83B          dec byte [0x3ba8]
00003258  75EC              jnz 0x3246
0000325A  EB0B              jmp short 0x3267
0000325C  90                nop
0000325D  E8A602            call 0x3506
00003260  C6069A3912        mov byte [0x399a],0x12
00003265  730C              jnc 0x3273
00003267  C606633901        mov byte [0x3963],0x1
0000326C  BE4132            mov si,0x3241
0000326F  56                push si
00003270  E80601            call 0x3379
00003273  803E633909        cmp byte [0x3963],0x9
00003278  7406              jz 0x3280
0000327A  FE066339          inc byte [0x3963]
0000327E  EBCC              jmp short 0x324c
00003280  C606633901        mov byte [0x3963],0x1
00003285  B87439            mov ax,0x3974
00003288  3B066439          cmp ax,[0x3964]
0000328C  7419              jz 0x32a7
0000328E  FF066439          inc word [0x3964]
00003292  FF066439          inc word [0x3964]
00003296  8B366439          mov si,[0x3964]
0000329A  8A04              mov al,[si]
0000329C  A26139            mov [0x3961],al
0000329F  8A4401            mov al,[si+0x1]
000032A2  A26239            mov [0x3962],al
000032A5  EBA5              jmp short 0x324c
000032A7  BA2008            mov dx,0x820
000032AA  E89E14            call 0x474b
000032AD  BF4436            mov di,0x3644
000032B0  E8A114            call 0x4754
000032B3  803E603901        cmp byte [0x3960],0x1
000032B8  7422              jz 0x32dc
000032BA  FE066039          inc byte [0x3960]
000032BE  C606613900        mov byte [0x3961],0x0
000032C3  C606633901        mov byte [0x3963],0x1
000032C8  C606623900        mov byte [0x3962],0x0
000032CD  C70664396639      mov word [0x3964],0x3966
000032D3  E80D00            call 0x32e3
000032D6  E8F514            call 0x47ce
000032D9  E970FF            jmp 0x324c
000032DC  E80400            call 0x32e3
000032DF  E8EC14            call 0x47ce
000032E2  C3                ret
000032E3  BF0A53            mov di,0x530a
000032E6  E8D814            call 0x47c1
000032E9  E8F014            call 0x47dc
000032EC  80FC01            cmp ah,0x1
000032EF  7508              jnz 0x32f9
000032F1  BE7052            mov si,0x5270
000032F4  E8FE14            call 0x47f5
000032F7  5E                pop si
000032F8  C3                ret
000032F9  80FC4E            cmp ah,0x4e
000032FC  740B              jz 0x3309
000032FE  BE4852            mov si,0x5248
00003301  E8F114            call 0x47f5
00003304  E80E15            call 0x4815
00003307  EBE0              jmp short 0x32e9
00003309  BE7052            mov si,0x5270
0000330C  E8E614            call 0x47f5
0000330F  C3                ret
00003310  BA1608            mov dx,0x816
00003313  E83514            call 0x474b
00003316  BF4436            mov di,0x3644
00003319  E83814            call 0x4754
0000331C  BF7639            mov di,0x3976
0000331F  B90900            mov cx,0x9
00003322  A06239            mov al,[0x3962]
00003325  8805              mov [di],al
00003327  A06139            mov al,[0x3961]
0000332A  884501            mov [di+0x1],al
0000332D  83C704            add di,byte +0x4
00003330  E2F0              loop 0x3322
00003332  B80905            mov ax,0x509
00003335  BB7639            mov bx,0x3976
00003338  EB28              jmp short 0x3362
0000333A  90                nop
0000333B  BA1608            mov dx,0x816
0000333E  E80A14            call 0x474b
00003341  BFB938            mov di,0x38b9
00003344  E80D14            call 0x4754
00003347  B80102            mov ax,0x201
0000334A  BBA839            mov bx,0x39a8
0000334D  EB13              jmp short 0x3362
0000334F  90                nop
00003350  BA1608            mov dx,0x816
00003353  E8F513            call 0x474b
00003356  BFDA38            mov di,0x38da
00003359  E8F813            call 0x4754
0000335C  B80103            mov ax,0x301
0000335F  BB4850            mov bx,0x5048
00003362  8A166039          mov dl,[0x3960]
00003366  8A366139          mov dh,[0x3961]
0000336A  8A2E6239          mov ch,[0x3962]
0000336E  8A0E6339          mov cl,[0x3963]
00003372  CD13              int 0x13
00003374  88269A39          mov [0x399a],ah
00003378  C3                ret
00003379  8A269A39          mov ah,[0x399a]
0000337D  C6069A3900        mov byte [0x399a],0x0
00003382  80FC03            cmp ah,0x3
00003385  7506              jnz 0x338d
00003387  BEB536            mov si,0x36b5
0000338A  EB60              jmp short 0x33ec
0000338C  90                nop
0000338D  80FC09            cmp ah,0x9
00003390  7506              jnz 0x3398
00003392  BE2D37            mov si,0x372d
00003395  EB55              jmp short 0x33ec
00003397  90                nop
00003398  80FC12            cmp ah,0x12
0000339B  7506              jnz 0x33a3
0000339D  BE7D37            mov si,0x377d
000033A0  EB4A              jmp short 0x33ec
000033A2  90                nop
000033A3  0AE4              or ah,ah
000033A5  7906              jns 0x33ad
000033A7  BEF537            mov si,0x37f5
000033AA  EB40              jmp short 0x33ec
000033AC  90                nop
000033AD  D0E4              shl ah,1
000033AF  7906              jns 0x33b7
000033B1  BECD37            mov si,0x37cd
000033B4  EB36              jmp short 0x33ec
000033B6  90                nop
000033B7  D0E4              shl ah,1
000033B9  7906              jns 0x33c1
000033BB  BEA537            mov si,0x37a5
000033BE  EB2C              jmp short 0x33ec
000033C0  90                nop
000033C1  D0E4              shl ah,1
000033C3  7906              jns 0x33cb
000033C5  BE5537            mov si,0x3755
000033C8  EB22              jmp short 0x33ec
000033CA  90                nop
000033CB  D0E4              shl ah,1
000033CD  7906              jns 0x33d5
000033CF  BE0537            mov si,0x3705
000033D2  EB18              jmp short 0x33ec
000033D4  90                nop
000033D5  D0E4              shl ah,1
000033D7  7906              jns 0x33df
000033D9  BEDD36            mov si,0x36dd
000033DC  EB0E              jmp short 0x33ec
000033DE  90                nop
000033DF  D0E4              shl ah,1
000033E1  7906              jns 0x33e9
000033E3  BE8D36            mov si,0x368d
000033E6  EB04              jmp short 0x33ec
000033E8  90                nop
000033E9  BE6536            mov si,0x3665
000033EC  E80614            call 0x47f5
000033EF  BF0A53            mov di,0x530a
000033F2  E8CC13            call 0x47c1
000033F5  E81D14            call 0x4815
000033F8  E8E113            call 0x47dc
000033FB  80FC4E            cmp ah,0x4e
000033FE  7416              jz 0x3416
00003400  80FC01            cmp ah,0x1
00003403  7408              jz 0x340d
00003405  BE4852            mov si,0x5248
00003408  E8EA13            call 0x47f5
0000340B  EBE8              jmp short 0x33f5
0000340D  BE7052            mov si,0x5270
00003410  E8E213            call 0x47f5
00003413  58                pop ax
00003414  58                pop ax
00003415  C3                ret
00003416  E8B513            call 0x47ce
00003419  BE7052            mov si,0x5270
0000341C  E8D613            call 0x47f5
0000341F  58                pop ax
00003420  C3                ret
00003421  50                push ax
00003422  A1A439            mov ax,[0x39a4]
00003425  A3A639            mov [0x39a6],ax
00003428  C706A4390000      mov word [0x39a4],0x0
0000342E  C6069B3980        mov byte [0x399b],0x80
00003433  B020              mov al,0x20
00003435  E620              out 0x20,al
00003437  58                pop ax
00003438  CF                iret
00003439  50                push ax
0000343A  FF06A439          inc word [0x39a4]
0000343E  B020              mov al,0x20
00003440  E620              out 0x20,al
00003442  58                pop ax
00003443  CF                iret
00003444  51                push cx
00003445  BAF403            mov dx,0x3f4
00003448  B704              mov bh,0x4
0000344A  33C9              xor cx,cx
0000344C  EC                in al,dx
0000344D  24C0              and al,0xc0
0000344F  3C80              cmp al,0x80
00003451  740E              jz 0x3461
00003453  E2F7              loop 0x344c
00003455  FECF              dec bh
00003457  75F3              jnz 0x344c
00003459  C6069A3980        mov byte [0x399a],0x80
0000345E  59                pop cx
0000345F  58                pop ax
00003460  C3                ret
00003461  8AC4              mov al,ah
00003463  BAF503            mov dx,0x3f5
00003466  EE                out dx,al
00003467  59                pop cx
00003468  C3                ret
00003469  51                push cx
0000346A  B307              mov bl,0x7
0000346C  B704              mov bh,0x4
0000346E  33C9              xor cx,cx
00003470  BAF403            mov dx,0x3f4
00003473  EC                in al,dx
00003474  A880              test al,0x80
00003476  750D              jnz 0x3485
00003478  E2F9              loop 0x3473
0000347A  FECF              dec bh
0000347C  75F5              jnz 0x3473
0000347E  C6069A3980        mov byte [0x399a],0x80
00003483  59                pop cx
00003484  C3                ret
00003485  A840              test al,0x40
00003487  7507              jnz 0x3490
00003489  C6069A3920        mov byte [0x399a],0x20
0000348E  EBF3              jmp short 0x3483
00003490  BAF503            mov dx,0x3f5
00003493  EC                in al,dx
00003494  B90A00            mov cx,0xa
00003497  E2FE              loop 0x3497
00003499  FECB              dec bl
0000349B  75CF              jnz 0x346c
0000349D  BAF403            mov dx,0x3f4
000034A0  EC                in al,dx
000034A1  A810              test al,0x10
000034A3  74DE              jz 0x3483
000034A5  EBE2              jmp short 0x3489
000034A7  FA                cli
000034A8  B036              mov al,0x36
000034AA  E643              out 0x43,al
000034AC  33C0              xor ax,ax
000034AE  E640              out 0x40,al
000034B0  E640              out 0x40,al
000034B2  8EC0              mov es,ax
000034B4  A19C39            mov ax,[0x399c]
000034B7  26A33800          mov [es:0x38],ax
000034BB  A19E39            mov ax,[0x399e]
000034BE  26A33A00          mov [es:0x3a],ax
000034C2  A1A039            mov ax,[0x39a0]
000034C5  26A32000          mov [es:0x20],ax
000034C9  A1A239            mov ax,[0x39a2]
000034CC  26A32200          mov [es:0x22],ax
000034D0  FB                sti
000034D1  C3                ret
000034D2  BF9338            mov di,0x3893
000034D5  A06039            mov al,[0x3960]
000034D8  0441              add al,0x41
000034DA  884503            mov [di+0x3],al
000034DD  A06239            mov al,[0x3962]
000034E0  32E4              xor ah,ah
000034E2  B30A              mov bl,0xa
000034E4  F6F3              div bl
000034E6  053030            add ax,0x3030
000034E9  894515            mov [di+0x15],ax
000034EC  A06139            mov al,[0x3961]
000034EF  0430              add al,0x30
000034F1  88450C            mov [di+0xc],al
000034F4  A06339            mov al,[0x3963]
000034F7  0430              add al,0x30
000034F9  884520            mov [di+0x20],al
000034FC  BA160B            mov dx,0xb16
000034FF  E84912            call 0x474b
00003502  E84F12            call 0x4754
00003505  C3                ret
00003506  BA1608            mov dx,0x816
00003509  E83F12            call 0x474b
0000350C  BFFB38            mov di,0x38fb
0000350F  E84212            call 0x4754
00003512  B90020            mov cx,0x2000
00003515  E2FE              loop 0x3515
00003517  B90002            mov cx,0x200
0000351A  BFA839            mov di,0x39a8
0000351D  BE4850            mov si,0x5048
00003520  BB0000            mov bx,0x0
00003523  8A01              mov al,[bx+di]
00003525  3A00              cmp al,[bx+si]
00003527  7505              jnz 0x352e
00003529  43                inc bx
0000352A  E2F7              loop 0x3523
0000352C  F8                clc
0000352D  C3                ret
0000352E  F9                stc
0000352F  C3                ret
00003530  87494E            xchg cx,[bx+di+0x4e]
00003533  53                push bx
00003534  45                inc bp
00003535  52                push dx
00003536  54                push sp
00003537  205343            and [bp+di+0x43],dl
0000353A  52                push dx
0000353B  41                inc cx
0000353C  54                push sp
0000353D  43                inc bx
0000353E  48                dec ax
0000353F  204449            and [si+0x49],al
00003542  53                push bx
00003543  4B                dec bx
00003544  285329            sub [bp+di+0x29],dl
00003547  20494E            and [bx+di+0x4e],cl
0000354A  20464C            and [bp+0x4c],al
0000354D  4F                dec di
0000354E  50                push ax
0000354F  50                push ax
00003550  59                pop cx
00003551  204452            and [si+0x52],al
00003554  49                dec cx
00003555  56                push si
00003556  45                inc bp
00003557  285329            sub [bp+di+0x29],dl
0000355A  0D0D00            or ax,0xd
0000355D  07                pop es
0000355E  2020              and [bx+si],ah
00003560  2020              and [bx+si],ah
00003562  2020              and [bx+si],ah
00003564  2020              and [bx+si],ah
00003566  2020              and [bx+si],ah
00003568  2020              and [bx+si],ah
0000356A  2020              and [bx+si],ah
0000356C  2020              and [bx+si],ah
0000356E  2020              and [bx+si],ah
00003570  2020              and [bx+si],ah
00003572  2020              and [bx+si],ah
00003574  205748            and [bx+0x48],dl
00003577  49                dec cx
00003578  43                inc bx
00003579  48                dec ax
0000357A  204452            and [si+0x52],al
0000357D  49                dec cx
0000357E  56                push si
0000357F  45                inc bp
00003580  285329            sub [bp+di+0x29],dl
00003583  20574F            and [bx+0x4f],dl
00003586  55                push bp
00003587  4C                dec sp
00003588  44                inc sp
00003589  20594F            and [bx+di+0x4f],bl
0000358C  55                push bp
0000358D  204C49            and [si+0x49],cl
00003590  4B                dec bx
00003591  45                inc bp
00003592  20544F            and [si+0x4f],dl
00003595  205445            and [si+0x45],dl
00003598  53                push bx
00003599  54                push sp
0000359A  3F                aas
0000359B  0D0D20            or ax,0x200d
0000359E  2020              and [bx+si],ah
000035A0  2020              and [bx+si],ah
000035A2  2020              and [bx+si],ah
000035A4  2020              and [bx+si],ah
000035A6  2020              and [bx+si],ah
000035A8  2020              and [bx+si],ah
000035AA  2020              and [bx+si],ah
000035AC  2020              and [bx+si],ah
000035AE  2020              and [bx+si],ah
000035B0  2020              and [bx+si],ah
000035B2  2020              and [bx+si],ah
000035B4  2020              and [bx+si],ah
000035B6  2020              and [bx+si],ah
000035B8  2020              and [bx+si],ah
000035BA  2020              and [bx+si],ah
000035BC  2020              and [bx+si],ah
000035BE  2020              and [bx+si],ah
000035C0  312D              xor [di],bp
000035C2  2D2D2D            sub ax,0x2d2d
000035C5  2D2D2D            sub ax,0x2d2d
000035C8  44                inc sp
000035C9  52                push dx
000035CA  49                dec cx
000035CB  56                push si
000035CC  45                inc bp
000035CD  204120            and [bx+di+0x20],al
000035D0  4F                dec di
000035D1  4E                dec si
000035D2  4C                dec sp
000035D3  59                pop cx
000035D4  0D2020            or ax,0x2020
000035D7  2020              and [bx+si],ah
000035D9  2020              and [bx+si],ah
000035DB  2020              and [bx+si],ah
000035DD  2020              and [bx+si],ah
000035DF  2020              and [bx+si],ah
000035E1  2020              and [bx+si],ah
000035E3  2020              and [bx+si],ah
000035E5  2020              and [bx+si],ah
000035E7  2020              and [bx+si],ah
000035E9  2020              and [bx+si],ah
000035EB  2020              and [bx+si],ah
000035ED  2020              and [bx+si],ah
000035EF  2020              and [bx+si],ah
000035F1  2020              and [bx+si],ah
000035F3  2020              and [bx+si],ah
000035F5  2020              and [bx+si],ah
000035F7  2032              and [bp+si],dh
000035F9  2D2D2D            sub ax,0x2d2d
000035FC  2D2D2D            sub ax,0x2d2d
000035FF  2D4452            sub ax,0x5244
00003602  49                dec cx
00003603  56                push si
00003604  45                inc bp
00003605  204220            and [bp+si+0x20],al
00003608  4F                dec di
00003609  4E                dec si
0000360A  4C                dec sp
0000360B  59                pop cx
0000360C  0D2020            or ax,0x2020
0000360F  2020              and [bx+si],ah
00003611  2020              and [bx+si],ah
00003613  2020              and [bx+si],ah
00003615  2020              and [bx+si],ah
00003617  2020              and [bx+si],ah
00003619  2020              and [bx+si],ah
0000361B  2020              and [bx+si],ah
0000361D  2020              and [bx+si],ah
0000361F  2020              and [bx+si],ah
00003621  2020              and [bx+si],ah
00003623  2020              and [bx+si],ah
00003625  2020              and [bx+si],ah
00003627  2020              and [bx+si],ah
00003629  2020              and [bx+si],ah
0000362B  2020              and [bx+si],ah
0000362D  2020              and [bx+si],ah
0000362F  2033              and [bp+di],dh
00003631  2D2D2D            sub ax,0x2d2d
00003634  2D2D2D            sub ax,0x2d2d
00003637  2D424F            sub ax,0x4f42
0000363A  54                push sp
0000363B  48                dec ax
0000363C  204452            and [si+0x52],al
0000363F  49                dec cx
00003640  56                push si
00003641  45                inc bp
00003642  53                push bx
00003643  0007              add [bx],al
00003645  2020              and [bx+si],ah
00003647  2020              and [bx+si],ah
00003649  2020              and [bx+si],ah
0000364B  2020              and [bx+si],ah
0000364D  2020              and [bx+si],ah
0000364F  2020              and [bx+si],ah
00003651  2020              and [bx+si],ah
00003653  2020              and [bx+si],ah
00003655  2020              and [bx+si],ah
00003657  2020              and [bx+si],ah
00003659  2020              and [bx+si],ah
0000365B  2020              and [bx+si],ah
0000365D  2020              and [bx+si],ah
0000365F  2020              and [bx+si],ah
00003661  2020              and [bx+si],ah
00003663  2000              and [bx+si],al
00003665  2020              and [bx+si],ah
00003667  2020              and [bx+si],ah
00003669  2020              and [bx+si],ah
0000366B  2020              and [bx+si],ah
0000366D  2020              and [bx+si],ah
0000366F  2020              and [bx+si],ah
00003671  204241            and [bp+si+0x41],al
00003674  44                inc sp
00003675  204644            and [bp+0x44],al
00003678  43                inc bx
00003679  20434F            and [bp+di+0x4f],al
0000367C  4D                dec bp
0000367D  4D                dec bp
0000367E  41                inc cx
0000367F  4E                dec si
00003680  44                inc sp
00003681  2020              and [bx+si],ah
00003683  2020              and [bx+si],ah
00003685  2020              and [bx+si],ah
00003687  2020              and [bx+si],ah
00003689  2020              and [bx+si],ah
0000368B  2020              and [bx+si],ah
0000368D  2020              and [bx+si],ah
0000368F  2020              and [bx+si],ah
00003691  2020              and [bx+si],ah
00003693  2020              and [bx+si],ah
00003695  2020              and [bx+si],ah
00003697  4D                dec bp
00003698  49                dec cx
00003699  53                push bx
0000369A  53                push bx
0000369B  49                dec cx
0000369C  4E                dec si
0000369D  47                inc di
0000369E  204144            and [bx+di+0x44],al
000036A1  44                inc sp
000036A2  52                push dx
000036A3  45                inc bp
000036A4  53                push bx
000036A5  53                push bx
000036A6  204D41            and [di+0x41],cl
000036A9  52                push dx
000036AA  4B                dec bx
000036AB  2020              and [bx+si],ah
000036AD  2020              and [bx+si],ah
000036AF  2020              and [bx+si],ah
000036B1  2020              and [bx+si],ah
000036B3  2020              and [bx+si],ah
000036B5  2020              and [bx+si],ah
000036B7  2020              and [bx+si],ah
000036B9  2020              and [bx+si],ah
000036BB  2020              and [bx+si],ah
000036BD  2020              and [bx+si],ah
000036BF  57                push di
000036C0  52                push dx
000036C1  49                dec cx
000036C2  54                push sp
000036C3  45                inc bp
000036C4  205052            and [bx+si+0x52],dl
000036C7  4F                dec di
000036C8  54                push sp
000036C9  45                inc bp
000036CA  43                inc bx
000036CB  54                push sp
000036CC  204552            and [di+0x52],al
000036CF  52                push dx
000036D0  4F                dec di
000036D1  52                push dx
000036D2  2020              and [bx+si],ah
000036D4  2020              and [bx+si],ah
000036D6  2020              and [bx+si],ah
000036D8  2020              and [bx+si],ah
000036DA  2020              and [bx+si],ah
000036DC  2020              and [bx+si],ah
000036DE  2020              and [bx+si],ah
000036E0  2020              and [bx+si],ah
000036E2  2020              and [bx+si],ah
000036E4  2020              and [bx+si],ah
000036E6  52                push dx
000036E7  45                inc bp
000036E8  43                inc bx
000036E9  4F                dec di
000036EA  52                push dx
000036EB  44                inc sp
000036EC  204E4F            and [bp+0x4f],cl
000036EF  54                push sp
000036F0  20464F            and [bp+0x4f],al
000036F3  55                push bp
000036F4  4E                dec si
000036F5  44                inc sp
000036F6  204552            and [di+0x52],al
000036F9  52                push dx
000036FA  4F                dec di
000036FB  52                push dx
000036FC  2020              and [bx+si],ah
000036FE  2020              and [bx+si],ah
00003700  2020              and [bx+si],ah
00003702  2020              and [bx+si],ah
00003704  2020              and [bx+si],ah
00003706  2020              and [bx+si],ah
00003708  2020              and [bx+si],ah
0000370A  2020              and [bx+si],ah
0000370C  2020              and [bx+si],ah
0000370E  2020              and [bx+si],ah
00003710  44                inc sp
00003711  4D                dec bp
00003712  41                inc cx
00003713  205452            and [si+0x52],dl
00003716  41                inc cx
00003717  4E                dec si
00003718  53                push bx
00003719  46                inc si
0000371A  45                inc bp
0000371B  52                push dx
0000371C  204552            and [di+0x52],al
0000371F  52                push dx
00003720  4F                dec di
00003721  52                push dx
00003722  2020              and [bx+si],ah
00003724  2020              and [bx+si],ah
00003726  2020              and [bx+si],ah
00003728  2020              and [bx+si],ah
0000372A  2020              and [bx+si],ah
0000372C  2020              and [bx+si],ah
0000372E  2020              and [bx+si],ah
00003730  2020              and [bx+si],ah
00003732  2020              and [bx+si],ah
00003734  2020              and [bx+si],ah
00003736  2020              and [bx+si],ah
00003738  44                inc sp
00003739  4D                dec bp
0000373A  41                inc cx
0000373B  20424F            and [bp+si+0x4f],al
0000373E  55                push bp
0000373F  4E                dec si
00003740  44                inc sp
00003741  41                inc cx
00003742  52                push dx
00003743  59                pop cx
00003744  204552            and [di+0x52],al
00003747  52                push dx
00003748  4F                dec di
00003749  52                push dx
0000374A  2020              and [bx+si],ah
0000374C  2020              and [bx+si],ah
0000374E  2020              and [bx+si],ah
00003750  2020              and [bx+si],ah
00003752  2020              and [bx+si],ah
00003754  2020              and [bx+si],ah
00003756  2020              and [bx+si],ah
00003758  2020              and [bx+si],ah
0000375A  2020              and [bx+si],ah
0000375C  2020              and [bx+si],ah
0000375E  2020              and [bx+si],ah
00003760  2020              and [bx+si],ah
00003762  2020              and [bx+si],ah
00003764  43                inc bx
00003765  52                push dx
00003766  43                inc bx
00003767  204552            and [di+0x52],al
0000376A  52                push dx
0000376B  4F                dec di
0000376C  52                push dx
0000376D  2020              and [bx+si],ah
0000376F  2020              and [bx+si],ah
00003771  2020              and [bx+si],ah
00003773  2020              and [bx+si],ah
00003775  2020              and [bx+si],ah
00003777  2020              and [bx+si],ah
00003779  2020              and [bx+si],ah
0000377B  2020              and [bx+si],ah
0000377D  2020              and [bx+si],ah
0000377F  2020              and [bx+si],ah
00003781  2020              and [bx+si],ah
00003783  205245            and [bp+si+0x45],dl
00003786  41                inc cx
00003787  44                inc sp
00003788  205752            and [bx+0x52],dl
0000378B  49                dec cx
0000378C  54                push sp
0000378D  45                inc bp
0000378E  20434F            and [bp+di+0x4f],al
00003791  4D                dec bp
00003792  50                push ax
00003793  41                inc cx
00003794  52                push dx
00003795  45                inc bp
00003796  204552            and [di+0x52],al
00003799  52                push dx
0000379A  4F                dec di
0000379B  52                push dx
0000379C  2020              and [bx+si],ah
0000379E  2020              and [bx+si],ah
000037A0  2020              and [bx+si],ah
000037A2  2020              and [bx+si],ah
000037A4  2020              and [bx+si],ah
000037A6  2020              and [bx+si],ah
000037A8  2020              and [bx+si],ah
000037AA  2020              and [bx+si],ah
000037AC  2020              and [bx+si],ah
000037AE  2020              and [bx+si],ah
000037B0  204641            and [bp+0x41],al
000037B3  55                push bp
000037B4  4C                dec sp
000037B5  54                push sp
000037B6  59                pop cx
000037B7  204644            and [bp+0x44],al
000037BA  43                inc bx
000037BB  204348            and [bp+di+0x48],al
000037BE  49                dec cx
000037BF  50                push ax
000037C0  2020              and [bx+si],ah
000037C2  2020              and [bx+si],ah
000037C4  2020              and [bx+si],ah
000037C6  2020              and [bx+si],ah
000037C8  2020              and [bx+si],ah
000037CA  2020              and [bx+si],ah
000037CC  2020              and [bx+si],ah
000037CE  2020              and [bx+si],ah
000037D0  2020              and [bx+si],ah
000037D2  2020              and [bx+si],ah
000037D4  2020              and [bx+si],ah
000037D6  2020              and [bx+si],ah
000037D8  2020              and [bx+si],ah
000037DA  53                push bx
000037DB  45                inc bp
000037DC  45                inc bp
000037DD  4B                dec bx
000037DE  49                dec cx
000037DF  4E                dec si
000037E0  47                inc di
000037E1  204552            and [di+0x52],al
000037E4  52                push dx
000037E5  4F                dec di
000037E6  52                push dx
000037E7  2020              and [bx+si],ah
000037E9  2020              and [bx+si],ah
000037EB  2020              and [bx+si],ah
000037ED  2020              and [bx+si],ah
000037EF  2020              and [bx+si],ah
000037F1  2020              and [bx+si],ah
000037F3  2020              and [bx+si],ah
000037F5  2020              and [bx+si],ah
000037F7  2020              and [bx+si],ah
000037F9  2020              and [bx+si],ah
000037FB  2020              and [bx+si],ah
000037FD  2020              and [bx+si],ah
000037FF  204644            and [bp+0x44],al
00003802  43                inc bx
00003803  205449            and [si+0x49],dl
00003806  4D                dec bp
00003807  45                inc bp
00003808  2D4F55            sub ax,0x554f
0000380B  54                push sp
0000380C  204552            and [di+0x52],al
0000380F  52                push dx
00003810  4F                dec di
00003811  52                push dx
00003812  2020              and [bx+si],ah
00003814  2020              and [bx+si],ah
00003816  2020              and [bx+si],ah
00003818  2020              and [bx+si],ah
0000381A  2020              and [bx+si],ah
0000381C  2002              and [bp+si],al
0000381E  2020              and [bx+si],ah
00003820  44                inc sp
00003821  49                dec cx
00003822  53                push bx
00003823  4B                dec bx
00003824  205350            and [bp+di+0x50],dl
00003827  45                inc bp
00003828  45                inc bp
00003829  44                inc sp
0000382A  205445            and [si+0x45],dl
0000382D  53                push bx
0000382E  54                push sp
0000382F  2024              and [si],ah
00003831  0A5041            or dl,[bx+si+0x41]
00003834  53                push bx
00003835  53                push bx
00003836  45                inc bp
00003837  44                inc sp
00003838  0004              add [si],al
0000383A  2020              and [bx+si],ah
0000383C  44                inc sp
0000383D  49                dec cx
0000383E  53                push bx
0000383F  4B                dec bx
00003840  205350            and [bp+di+0x50],dl
00003843  45                inc bp
00003844  45                inc bp
00003845  44                inc sp
00003846  205445            and [si+0x45],dl
00003849  53                push bx
0000384A  54                push sp
0000384B  2024              and [si],ah
0000384D  06                push es
0000384E  46                inc si
0000384F  41                inc cx
00003850  49                dec cx
00003851  4C                dec sp
00003852  45                inc bp
00003853  44                inc sp
00003854  000B              add [bp+di],cl
00003856  52                push dx
00003857  41                inc cx
00003858  4E                dec si
00003859  44                inc sp
0000385A  4F                dec di
0000385B  4D                dec bp
0000385C  205245            and [bp+si+0x45],dl
0000385F  41                inc cx
00003860  44                inc sp
00003861  2F                das
00003862  57                push di
00003863  52                push dx
00003864  49                dec cx
00003865  54                push sp
00003866  45                inc bp
00003867  205445            and [si+0x45],dl
0000386A  53                push bx
0000386B  54                push sp
0000386C  0007              add [bx],al
0000386E  44                inc sp
0000386F  52                push dx
00003870  49                dec cx
00003871  56                push si
00003872  45                inc bp
00003873  2020              and [bx+si],ah
00003875  2020              and [bx+si],ah
00003877  204845            and [bx+si+0x45],cl
0000387A  41                inc cx
0000387B  44                inc sp
0000387C  2020              and [bx+si],ah
0000387E  2020              and [bx+si],ah
00003880  205452            and [si+0x52],dl
00003883  41                inc cx
00003884  43                inc bx
00003885  4B                dec bx
00003886  2020              and [bx+si],ah
00003888  2020              and [bx+si],ah
0000388A  205345            and [bp+di+0x45],dl
0000388D  43                inc bx
0000388E  54                push sp
0000388F  4F                dec di
00003890  52                push dx
00003891  2000              and [bx+si],al
00003893  0E                push cs
00003894  2020              and [bx+si],ah
00003896  3020              xor [bx+si],ah
00003898  2020              and [bx+si],ah
0000389A  2020              and [bx+si],ah
0000389C  2020              and [bx+si],ah
0000389E  2030              and [bx+si],dh
000038A0  2020              and [bx+si],ah
000038A2  2020              and [bx+si],ah
000038A4  2020              and [bx+si],ah
000038A6  2020              and [bx+si],ah
000038A8  3030              xor [bx+si],dh
000038AA  2020              and [bx+si],ah
000038AC  2020              and [bx+si],ah
000038AE  2020              and [bx+si],ah
000038B0  2020              and [bx+si],ah
000038B2  2030              and [bx+si],dh
000038B4  2020              and [bx+si],ah
000038B6  2020              and [bx+si],ah
000038B8  0003              add [bp+di],al
000038BA  2020              and [bx+si],ah
000038BC  2020              and [bx+si],ah
000038BE  2020              and [bx+si],ah
000038C0  2020              and [bx+si],ah
000038C2  2020              and [bx+si],ah
000038C4  2020              and [bx+si],ah
000038C6  205265            and [bp+si+0x65],dl
000038C9  61                popa
000038CA  64696E672020      imul bp,[fs:bp+0x67],word 0x2020
000038D0  2020              and [bx+si],ah
000038D2  2020              and [bx+si],ah
000038D4  2020              and [bx+si],ah
000038D6  2020              and [bx+si],ah
000038D8  2000              and [bx+si],al
000038DA  0220              add ah,[bx+si]
000038DC  2020              and [bx+si],ah
000038DE  205772            and [bx+0x72],dl
000038E1  6974696E67        imul si,[si+0x69],word 0x676e
000038E6  2020              and [bx+si],ah
000038E8  2020              and [bx+si],ah
000038EA  2020              and [bx+si],ah
000038EC  2020              and [bx+si],ah
000038EE  2020              and [bx+si],ah
000038F0  2020              and [bx+si],ah
000038F2  2020              and [bx+si],ah
000038F4  2020              and [bx+si],ah
000038F6  2020              and [bx+si],ah
000038F8  2020              and [bx+si],ah
000038FA  00062020          add [0x2020],al
000038FE  2020              and [bx+si],ah
00003900  2020              and [bx+si],ah
00003902  2020              and [bx+si],ah
00003904  2020              and [bx+si],ah
00003906  2020              and [bx+si],ah
00003908  2020              and [bx+si],ah
0000390A  2020              and [bx+si],ah
0000390C  2020              and [bx+si],ah
0000390E  2020              and [bx+si],ah
00003910  2020              and [bx+si],ah
00003912  56                push si
00003913  657269            gs jc 0x397f
00003916  667969            o32 jns 0x3982
00003919  6E                outsb
0000391A  670002            add [edx],al
0000391D  2020              and [bx+si],ah
0000391F  53                push bx
00003920  57                push di
00003921  41                inc cx
00003922  50                push ax
00003923  205448            and [si+0x48],dl
00003926  45                inc bp
00003927  204449            and [si+0x49],al
0000392A  53                push bx
0000392B  4B                dec bx
0000392C  53                push bx
0000392D  20494E            and [bx+di+0x4e],cl
00003930  204452            and [si+0x52],al
00003933  49                dec cx
00003934  56                push si
00003935  45                inc bp
00003936  53                push bx
00003937  204120            and [bx+di+0x20],al
0000393A  41                inc cx
0000393B  4E                dec si
0000393C  44                inc sp
0000393D  204200            and [bp+si+0x0],al
00003940  0B4449            or ax,[si+0x49]
00003943  53                push bx
00003944  4B                dec bx
00003945  204452            and [si+0x52],al
00003948  49                dec cx
00003949  56                push si
0000394A  45                inc bp
0000394B  20434F            and [bp+di+0x4f],al
0000394E  4D                dec bp
0000394F  50                push ax
00003950  41                inc cx
00003951  54                push sp
00003952  49                dec cx
00003953  42                inc dx
00003954  49                dec cx
00003955  4C                dec sp
00003956  49                dec cx
00003957  54                push sp
00003958  59                pop cx
00003959  205445            and [si+0x45],dl
0000395C  53                push bx
0000395D  54                push sp
0000395E  0000              add [bx+si],al
00003960  0000              add [bx+si],al
00003962  0000              add [bx+si],al
00003964  663900            cmp [bx+si],eax
00003967  0001              add [bx+di],al
00003969  1A00              sbb al,[bx+si]
0000396B  27                daa
0000396C  010C              add [si],cx
0000396E  001A              add [bp+si],bl
00003970  0127              add [bx],sp
00003972  000C              add [si],cl
00003974  0100              add [bx+si],ax
00003976  0000              add [bx+si],al
00003978  0102              add [bp+si],ax
0000397A  0000              add [bx+si],al
0000397C  0202              add al,[bp+si]
0000397E  0000              add [bx+si],al
00003980  0302              add ax,[bp+si]
00003982  0000              add [bx+si],al
00003984  0402              add al,0x2
00003986  0000              add [bx+si],al
00003988  050200            add ax,0x2
0000398B  00060200          add [0x2],al
0000398F  0007              add [bx],al
00003991  0200              add al,[bx+si]
00003993  0008              add [bx+si],cl
00003995  0200              add al,[bx+si]
00003997  0009              add [bx+di],cl
00003999  0200              add al,[bx+si]
0000399B  0000              add [bx+si],al
0000399D  0000              add [bx+si],al
0000399F  0000              add [bx+si],al
000039A1  0000              add [bx+si],al
000039A3  0000              add [bx+si],al
000039A5  0000              add [bx+si],al
000039A7  0000              add [bx+si],al
000039A9  0000              add [bx+si],al
000039AB  0000              add [bx+si],al
000039AD  0000              add [bx+si],al
000039AF  0000              add [bx+si],al
000039B1  0000              add [bx+si],al
000039B3  0000              add [bx+si],al
000039B5  0000              add [bx+si],al
000039B7  0000              add [bx+si],al
000039B9  0000              add [bx+si],al
000039BB  0000              add [bx+si],al
000039BD  0000              add [bx+si],al
000039BF  0000              add [bx+si],al
000039C1  0000              add [bx+si],al
000039C3  0000              add [bx+si],al
000039C5  0000              add [bx+si],al
000039C7  0000              add [bx+si],al
000039C9  0000              add [bx+si],al
000039CB  0000              add [bx+si],al
000039CD  0000              add [bx+si],al
000039CF  0000              add [bx+si],al
000039D1  0000              add [bx+si],al
000039D3  0000              add [bx+si],al
000039D5  0000              add [bx+si],al
000039D7  0000              add [bx+si],al
000039D9  0000              add [bx+si],al
000039DB  0000              add [bx+si],al
000039DD  0000              add [bx+si],al
000039DF  0000              add [bx+si],al
000039E1  0000              add [bx+si],al
000039E3  0000              add [bx+si],al
000039E5  0000              add [bx+si],al
000039E7  0000              add [bx+si],al
000039E9  0000              add [bx+si],al
000039EB  0000              add [bx+si],al
000039ED  0000              add [bx+si],al
000039EF  0000              add [bx+si],al
000039F1  0000              add [bx+si],al
000039F3  0000              add [bx+si],al
000039F5  0000              add [bx+si],al
000039F7  0000              add [bx+si],al
000039F9  0000              add [bx+si],al
000039FB  0000              add [bx+si],al
000039FD  0000              add [bx+si],al
000039FF  0000              add [bx+si],al
00003A01  0000              add [bx+si],al
00003A03  0000              add [bx+si],al
00003A05  0000              add [bx+si],al
00003A07  0000              add [bx+si],al
00003A09  0000              add [bx+si],al
00003A0B  0000              add [bx+si],al
00003A0D  0000              add [bx+si],al
00003A0F  0000              add [bx+si],al
00003A11  0000              add [bx+si],al
00003A13  0000              add [bx+si],al
00003A15  0000              add [bx+si],al
00003A17  0000              add [bx+si],al
00003A19  0000              add [bx+si],al
00003A1B  0000              add [bx+si],al
00003A1D  0000              add [bx+si],al
00003A1F  0000              add [bx+si],al
00003A21  0000              add [bx+si],al
00003A23  0000              add [bx+si],al
00003A25  0000              add [bx+si],al
00003A27  0000              add [bx+si],al
00003A29  0000              add [bx+si],al
00003A2B  0000              add [bx+si],al
00003A2D  0000              add [bx+si],al
00003A2F  0000              add [bx+si],al
00003A31  0000              add [bx+si],al
00003A33  0000              add [bx+si],al
00003A35  0000              add [bx+si],al
00003A37  0000              add [bx+si],al
00003A39  0000              add [bx+si],al
00003A3B  0000              add [bx+si],al
00003A3D  0000              add [bx+si],al
00003A3F  0000              add [bx+si],al
00003A41  0000              add [bx+si],al
00003A43  0000              add [bx+si],al
00003A45  0000              add [bx+si],al
00003A47  0000              add [bx+si],al
00003A49  0000              add [bx+si],al
00003A4B  0000              add [bx+si],al
00003A4D  0000              add [bx+si],al
00003A4F  0000              add [bx+si],al
00003A51  0000              add [bx+si],al
00003A53  0000              add [bx+si],al
00003A55  0000              add [bx+si],al
00003A57  0000              add [bx+si],al
00003A59  0000              add [bx+si],al
00003A5B  0000              add [bx+si],al
00003A5D  0000              add [bx+si],al
00003A5F  0000              add [bx+si],al
00003A61  0000              add [bx+si],al
00003A63  0000              add [bx+si],al
00003A65  0000              add [bx+si],al
00003A67  0000              add [bx+si],al
00003A69  0000              add [bx+si],al
00003A6B  0000              add [bx+si],al
00003A6D  0000              add [bx+si],al
00003A6F  0000              add [bx+si],al
00003A71  0000              add [bx+si],al
00003A73  0000              add [bx+si],al
00003A75  0000              add [bx+si],al
00003A77  0000              add [bx+si],al
00003A79  0000              add [bx+si],al
00003A7B  0000              add [bx+si],al
00003A7D  0000              add [bx+si],al
00003A7F  0000              add [bx+si],al
00003A81  0000              add [bx+si],al
00003A83  0000              add [bx+si],al
00003A85  0000              add [bx+si],al
00003A87  0000              add [bx+si],al
00003A89  0000              add [bx+si],al
00003A8B  0000              add [bx+si],al
00003A8D  0000              add [bx+si],al
00003A8F  0000              add [bx+si],al
00003A91  0000              add [bx+si],al
00003A93  0000              add [bx+si],al
00003A95  0000              add [bx+si],al
00003A97  0000              add [bx+si],al
00003A99  0000              add [bx+si],al
00003A9B  0000              add [bx+si],al
00003A9D  0000              add [bx+si],al
00003A9F  0000              add [bx+si],al
00003AA1  0000              add [bx+si],al
00003AA3  0000              add [bx+si],al
00003AA5  0000              add [bx+si],al
00003AA7  0000              add [bx+si],al
00003AA9  0000              add [bx+si],al
00003AAB  0000              add [bx+si],al
00003AAD  0000              add [bx+si],al
00003AAF  0000              add [bx+si],al
00003AB1  0000              add [bx+si],al
00003AB3  0000              add [bx+si],al
00003AB5  0000              add [bx+si],al
00003AB7  0000              add [bx+si],al
00003AB9  0000              add [bx+si],al
00003ABB  0000              add [bx+si],al
00003ABD  0000              add [bx+si],al
00003ABF  0000              add [bx+si],al
00003AC1  0000              add [bx+si],al
00003AC3  0000              add [bx+si],al
00003AC5  0000              add [bx+si],al
00003AC7  0000              add [bx+si],al
00003AC9  0000              add [bx+si],al
00003ACB  0000              add [bx+si],al
00003ACD  0000              add [bx+si],al
00003ACF  0000              add [bx+si],al
00003AD1  0000              add [bx+si],al
00003AD3  0000              add [bx+si],al
00003AD5  0000              add [bx+si],al
00003AD7  0000              add [bx+si],al
00003AD9  0000              add [bx+si],al
00003ADB  0000              add [bx+si],al
00003ADD  0000              add [bx+si],al
00003ADF  0000              add [bx+si],al
00003AE1  0000              add [bx+si],al
00003AE3  0000              add [bx+si],al
00003AE5  0000              add [bx+si],al
00003AE7  0000              add [bx+si],al
00003AE9  0000              add [bx+si],al
00003AEB  0000              add [bx+si],al
00003AED  0000              add [bx+si],al
00003AEF  0000              add [bx+si],al
00003AF1  0000              add [bx+si],al
00003AF3  0000              add [bx+si],al
00003AF5  0000              add [bx+si],al
00003AF7  0000              add [bx+si],al
00003AF9  0000              add [bx+si],al
00003AFB  0000              add [bx+si],al
00003AFD  0000              add [bx+si],al
00003AFF  0000              add [bx+si],al
00003B01  0000              add [bx+si],al
00003B03  0000              add [bx+si],al
00003B05  0000              add [bx+si],al
00003B07  0000              add [bx+si],al
00003B09  0000              add [bx+si],al
00003B0B  0000              add [bx+si],al
00003B0D  0000              add [bx+si],al
00003B0F  0000              add [bx+si],al
00003B11  0000              add [bx+si],al
00003B13  0000              add [bx+si],al
00003B15  0000              add [bx+si],al
00003B17  0000              add [bx+si],al
00003B19  0000              add [bx+si],al
00003B1B  0000              add [bx+si],al
00003B1D  0000              add [bx+si],al
00003B1F  0000              add [bx+si],al
00003B21  0000              add [bx+si],al
00003B23  0000              add [bx+si],al
00003B25  0000              add [bx+si],al
00003B27  0000              add [bx+si],al
00003B29  0000              add [bx+si],al
00003B2B  0000              add [bx+si],al
00003B2D  0000              add [bx+si],al
00003B2F  0000              add [bx+si],al
00003B31  0000              add [bx+si],al
00003B33  0000              add [bx+si],al
00003B35  0000              add [bx+si],al
00003B37  0000              add [bx+si],al
00003B39  0000              add [bx+si],al
00003B3B  0000              add [bx+si],al
00003B3D  0000              add [bx+si],al
00003B3F  0000              add [bx+si],al
00003B41  0000              add [bx+si],al
00003B43  0000              add [bx+si],al
00003B45  0000              add [bx+si],al
00003B47  0000              add [bx+si],al
00003B49  0000              add [bx+si],al
00003B4B  0000              add [bx+si],al
00003B4D  0000              add [bx+si],al
00003B4F  0000              add [bx+si],al
00003B51  0000              add [bx+si],al
00003B53  0000              add [bx+si],al
00003B55  0000              add [bx+si],al
00003B57  0000              add [bx+si],al
00003B59  0000              add [bx+si],al
00003B5B  0000              add [bx+si],al
00003B5D  0000              add [bx+si],al
00003B5F  0000              add [bx+si],al
00003B61  0000              add [bx+si],al
00003B63  0000              add [bx+si],al
00003B65  0000              add [bx+si],al
00003B67  0000              add [bx+si],al
00003B69  0000              add [bx+si],al
00003B6B  0000              add [bx+si],al
00003B6D  0000              add [bx+si],al
00003B6F  0000              add [bx+si],al
00003B71  0000              add [bx+si],al
00003B73  0000              add [bx+si],al
00003B75  0000              add [bx+si],al
00003B77  0000              add [bx+si],al
00003B79  0000              add [bx+si],al
00003B7B  0000              add [bx+si],al
00003B7D  0000              add [bx+si],al
00003B7F  0000              add [bx+si],al
00003B81  0000              add [bx+si],al
00003B83  0000              add [bx+si],al
00003B85  0000              add [bx+si],al
00003B87  0000              add [bx+si],al
00003B89  0000              add [bx+si],al
00003B8B  0000              add [bx+si],al
00003B8D  0000              add [bx+si],al
00003B8F  0000              add [bx+si],al
00003B91  0000              add [bx+si],al
00003B93  0000              add [bx+si],al
00003B95  0000              add [bx+si],al
00003B97  0000              add [bx+si],al
00003B99  0000              add [bx+si],al
00003B9B  0000              add [bx+si],al
00003B9D  0000              add [bx+si],al
00003B9F  0000              add [bx+si],al
00003BA1  0000              add [bx+si],al
00003BA3  0000              add [bx+si],al
00003BA5  0000              add [bx+si],al
00003BA7  0000              add [bx+si],al
00003BA9  0E                push cs
00003BAA  07                pop es
00003BAB  803EF14F00        cmp byte [0x4ff1],0x0
00003BB0  750A              jnz 0x3bbc
00003BB2  BE533F            mov si,0x3f53
00003BB5  E83D0C            call 0x47f5
00003BB8  E85A0C            call 0x4815
00003BBB  C3                ret
00003BBC  E8820C            call 0x4841
00003BBF  BA0008            mov dx,0x800
00003BC2  E8860B            call 0x474b
00003BC5  BF7B3F            mov di,0x3f7b
00003BC8  E8890B            call 0x4754
00003BCB  BF0A53            mov di,0x530a
00003BCE  E8F00B            call 0x47c1
00003BD1  E8080C            call 0x47dc
00003BD4  80FC4E            cmp ah,0x4e
00003BD7  7417              jz 0x3bf0
00003BD9  80FC01            cmp ah,0x1
00003BDC  7507              jnz 0x3be5
00003BDE  BE7052            mov si,0x5270
00003BE1  E8110C            call 0x47f5
00003BE4  C3                ret
00003BE5  BE4852            mov si,0x5248
00003BE8  E80A0C            call 0x47f5
00003BEB  E8270C            call 0x4815
00003BEE  EBE1              jmp short 0x3bd1
00003BF0  BE7052            mov si,0x5270
00003BF3  E8FF0B            call 0x47f5
00003BF6  E8D50B            call 0x47ce
00003BF9  803EF14F01        cmp byte [0x4ff1],0x1
00003BFE  743C              jz 0x3c3c
00003C00  BF9852            mov di,0x5298
00003C03  E8BB0B            call 0x47c1
00003C06  E8380C            call 0x4841
00003C09  E8430C            call 0x484f
00003C0C  BF3C41            mov di,0x413c
00003C0F  C606095002        mov byte [0x5009],0x2
00003C14  C606085000        mov byte [0x5008],0x0
00003C19  E8380B            call 0x4754
00003C1C  E8370C            call 0x4856
00003C1F  E83B0C            call 0x485d
00003C22  E8540C            call 0x4879
00003C25  8A260A50          mov ah,[0x500a]
00003C29  FEC4              inc ah
00003C2B  8826FB43          mov [0x43fb],ah
00003C2F  80FC02            cmp ah,0x2
00003C32  7508              jnz 0x3c3c
00003C34  C606FC4303        mov byte [0x43fc],0x3
00003C39  EB06              jmp short 0x3c41
00003C3B  90                nop
00003C3C  C606FC4302        mov byte [0x43fc],0x2
00003C41  C706FD430000      mov word [0x43fd],0x0
00003C47  E8F70B            call 0x4841
00003C4A  BA0007            mov dx,0x700
00003C4D  E8FB0A            call 0x474b
00003C50  BF3942            mov di,0x4239
00003C53  E8FE0A            call 0x4754
00003C56  BFC542            mov di,0x42c5
00003C59  E8650B            call 0x47c1
00003C5C  A0FC43            mov al,[0x43fc]
00003C5F  0441              add al,0x41
00003C61  A2A542            mov [0x42a5],al
00003C64  C606AE4230        mov byte [0x42ae],0x30
00003C69  C606B64230        mov byte [0x42b6],0x30
00003C6E  C706B7423030      mov word [0x42b7],0x3030
00003C74  C706C0423030      mov word [0x42c0],0x3030
00003C7A  BA1709            mov dx,0x917
00003C7D  E8CB0A            call 0x474b
00003C80  BFA242            mov di,0x42a2
00003C83  E8CE0A            call 0x4754
00003C86  A0FC43            mov al,[0x43fc]
00003C89  B90100            mov cx,0x1
00003C8C  8B16FD43          mov dx,[0x43fd]
00003C90  BB4850            mov bx,0x5048
00003C93  BF0043            mov di,0x4300
00003C96  57                push di
00003C97  E8C501            call 0x3e5f
00003C9A  7303              jnc 0x3c9f
00003C9C  E98301            jmp 0x3e22
00003C9F  9D                popf
00003CA0  5F                pop di
00003CA1  FF06FD43          inc word [0x43fd]
00003CA5  813E465255AA      cmp word [0x5246],0xaa55
00003CAB  7407              jz 0x3cb4
00003CAD  57                push di
00003CAE  9C                pushf
00003CAF  B412              mov ah,0x12
00003CB1  E96E01            jmp 0x3e22
00003CB4  A05550            mov al,[0x5055]
00003CB7  A20344            mov [0x4403],al
00003CBA  A15650            mov ax,[0x5056]
00003CBD  A30444            mov [0x4404],ax
00003CC0  A15950            mov ax,[0x5059]
00003CC3  A30644            mov [0x4406],ax
00003CC6  A15B50            mov ax,[0x505b]
00003CC9  A30844            mov [0x4408],ax
00003CCC  A15E50            mov ax,[0x505e]
00003CCF  A30A44            mov [0x440a],ax
00003CD2  A16050            mov ax,[0x5060]
00003CD5  A30C44            mov [0x440c],ax
00003CD8  A16250            mov ax,[0x5062]
00003CDB  A30E44            mov [0x440e],ax
00003CDE  A16450            mov ax,[0x5064]
00003CE1  A31044            mov [0x4410],ax
00003CE4  B90400            mov cx,0x4
00003CE7  A10644            mov ax,[0x4406]
00003CEA  D3E8              shr ax,cl
00003CEC  03060444          add ax,[0x4404]
00003CF0  03060A44          add ax,[0x440a]
00003CF4  03060A44          add ax,[0x440a]
00003CF8  A31244            mov [0x4412],ax
00003CFB  C606144400        mov byte [0x4414],0x0
00003D00  33D2              xor dx,dx
00003D02  A10844            mov ax,[0x4408]
00003D05  8A1E0344          mov bl,[0x4403]
00003D09  32FF              xor bh,bh
00003D0B  F7F3              div bx
00003D0D  3DF50F            cmp ax,0xff5
00003D10  7605              jna 0x3d17
00003D12  C6061444FF        mov byte [0x4414],0xff
00003D17  B401              mov ah,0x1
00003D19  CD16              int 0x16
00003D1B  740C              jz 0x3d29
00003D1D  32E4              xor ah,ah
00003D1F  CD16              int 0x16
00003D21  80FC01            cmp ah,0x1
00003D24  7503              jnz 0x3d29
00003D26  E99000            jmp 0x3db9
00003D29  E87701            call 0x3ea3
00003D2C  A0FC43            mov al,[0x43fc]
00003D2F  B90100            mov cx,0x1
00003D32  8B16FD43          mov dx,[0x43fd]
00003D36  BB4850            mov bx,0x5048
00003D39  BF2A43            mov di,0x432a
00003D3C  57                push di
00003D3D  E81F01            call 0x3e5f
00003D40  7303              jnc 0x3d45
00003D42  E9DD00            jmp 0x3e22
00003D45  9D                popf
00003D46  5F                pop di
00003D47  FF06FD43          inc word [0x43fd]
00003D4B  A11244            mov ax,[0x4412]
00003D4E  3B06FD43          cmp ax,[0x43fd]
00003D52  75C3              jnz 0x3d17
00003D54  A0FC43            mov al,[0x43fc]
00003D57  BBFF55            mov bx,0x55ff
00003D5A  8B0E0A44          mov cx,[0x440a]
00003D5E  8B160444          mov dx,[0x4404]
00003D62  57                push di
00003D63  E8F900            call 0x3e5f
00003D66  7303              jnc 0x3d6b
00003D68  E9B700            jmp 0x3e22
00003D6B  9D                popf
00003D6C  5F                pop di
00003D6D  B401              mov ah,0x1
00003D6F  CD16              int 0x16
00003D71  7409              jz 0x3d7c
00003D73  32E4              xor ah,ah
00003D75  CD16              int 0x16
00003D77  80FC01            cmp ah,0x1
00003D7A  743D              jz 0x3db9
00003D7C  E87701            call 0x3ef6
00003D7F  E82101            call 0x3ea3
00003D82  A0FC43            mov al,[0x43fc]
00003D85  B90100            mov cx,0x1
00003D88  8B16FD43          mov dx,[0x43fd]
00003D8C  BB4850            mov bx,0x5048
00003D8F  BF8C43            mov di,0x438c
00003D92  57                push di
00003D93  E8C900            call 0x3e5f
00003D96  7303              jnc 0x3d9b
00003D98  E98700            jmp 0x3e22
00003D9B  9D                popf
00003D9C  5F                pop di
00003D9D  FF06FD43          inc word [0x43fd]
00003DA1  A10844            mov ax,[0x4408]
00003DA4  3B06FD43          cmp ax,[0x43fd]
00003DA8  75C3              jnz 0x3d6d
00003DAA  E8940A            call 0x4841
00003DAD  BA1C09            mov dx,0x91c
00003DB0  E89809            call 0x474b
00003DB3  BFE143            mov di,0x43e1
00003DB6  E89B09            call 0x4754
00003DB9  803EFB4303        cmp byte [0x43fb],0x3
00003DBE  753F              jnz 0x3dff
00003DC0  803EFC4303        cmp byte [0x43fc],0x3
00003DC5  7438              jz 0x3dff
00003DC7  FE06FC43          inc byte [0x43fc]
00003DCB  BF0A53            mov di,0x530a
00003DCE  E8F009            call 0x47c1
00003DD1  E8080A            call 0x47dc
00003DD4  80FC4E            cmp ah,0x4e
00003DD7  750F              jnz 0x3de8
00003DD9  E8650A            call 0x4841
00003DDC  BE7052            mov si,0x5270
00003DDF  E8130A            call 0x47f5
00003DE2  E8E909            call 0x47ce
00003DE5  E959FE            jmp 0x3c41
00003DE8  80FC01            cmp ah,0x1
00003DEB  7507              jnz 0x3df4
00003DED  BE7052            mov si,0x5270
00003DF0  E8020A            call 0x47f5
00003DF3  C3                ret
00003DF4  BE4852            mov si,0x5248
00003DF7  E8FB09            call 0x47f5
00003DFA  E8180A            call 0x4815
00003DFD  EBD2              jmp short 0x3dd1
00003DFF  BF0C50            mov di,0x500c
00003E02  E8BC09            call 0x47c1
00003E05  E8D409            call 0x47dc
00003E08  80FC4E            cmp ah,0x4e
00003E0B  750A              jnz 0x3e17
00003E0D  BE7052            mov si,0x5270
00003E10  E8E209            call 0x47f5
00003E13  E8B809            call 0x47ce
00003E16  C3                ret
00003E17  BE4852            mov si,0x5248
00003E1A  E8D809            call 0x47f5
00003E1D  E8F509            call 0x4815
00003E20  EBE3              jmp short 0x3e05
00003E22  9D                popf
00003E23  5F                pop di
00003E24  BA140B            mov dx,0xb14
00003E27  E82109            call 0x474b
00003E2A  E82709            call 0x4754
00003E2D  E8E509            call 0x4815
00003E30  80FC00            cmp ah,0x0
00003E33  740D              jz 0x3e42
00003E35  B90700            mov cx,0x7
00003E38  BF1B44            mov di,0x441b
00003E3B  3A25              cmp ah,[di]
00003E3D  7410              jz 0x3e4f
00003E3F  4F                dec di
00003E40  E2F3              loop 0x3e35
00003E42  B90B00            mov cx,0xb
00003E45  BF2644            mov di,0x4426
00003E48  3A25              cmp ah,[di]
00003E4A  7403              jz 0x3e4f
00003E4C  4F                dec di
00003E4D  E2F3              loop 0x3e42
00003E4F  BD2744            mov bp,0x4427
00003E52  49                dec cx
00003E53  D1E1              shl cx,1
00003E55  03E9              add bp,cx
00003E57  8B7600            mov si,[bp+0x0]
00003E5A  E89809            call 0x47f5
00003E5D  EBA0              jmp short 0x3dff
00003E5F  06                push es
00003E60  FA                cli
00003E61  C706FF430000      mov word [0x43ff],0x0
00003E67  8E06FF43          mov es,[0x43ff]
00003E6B  26FF367000        push word [es:0x70]
00003E70  26FF367200        push word [es:0x72]
00003E75  BEF048            mov si,0x48f0
00003E78  2689367000        mov [es:0x70],si
00003E7D  268C0E7200        mov [es:0x72],cs
00003E82  FB                sti
00003E83  CD25              int 0x25
00003E85  8F06FF43          pop word [0x43ff]
00003E89  FA                cli
00003E8A  268F067200        pop word [es:0x72]
00003E8F  268F067000        pop word [es:0x70]
00003E94  FB                sti
00003E95  07                pop es
00003E96  8F060144          pop word [0x4401]
00003E9A  FF36FF43          push word [0x43ff]
00003E9E  FF360144          push word [0x4401]
00003EA2  C3                ret
00003EA3  A1FD43            mov ax,[0x43fd]
00003EA6  03061044          add ax,[0x4410]
00003EAA  33D2              xor dx,dx
00003EAC  8B1E0C44          mov bx,[0x440c]
00003EB0  F7F3              div bx
00003EB2  42                inc dx
00003EB3  50                push ax
00003EB4  8AC2              mov al,dl
00003EB6  32E4              xor ah,ah
00003EB8  B30A              mov bl,0xa
00003EBA  F6F3              div bl
00003EBC  053030            add ax,0x3030
00003EBF  A3C042            mov [0x42c0],ax
00003EC2  33D2              xor dx,dx
00003EC4  58                pop ax
00003EC5  8B1E0E44          mov bx,[0x440e]
00003EC9  F7F3              div bx
00003ECB  80C230            add dl,0x30
00003ECE  8816AE42          mov [0x42ae],dl
00003ED2  B364              mov bl,0x64
00003ED4  F6F3              div bl
00003ED6  0430              add al,0x30
00003ED8  A2B642            mov [0x42b6],al
00003EDB  8AC4              mov al,ah
00003EDD  32E4              xor ah,ah
00003EDF  B30A              mov bl,0xa
00003EE1  F6F3              div bl
00003EE3  053030            add ax,0x3030
00003EE6  A3B742            mov [0x42b7],ax
00003EE9  BA1709            mov dx,0x917
00003EEC  E85C08            call 0x474b
00003EEF  BFA242            mov di,0x42a2
00003EF2  E85F08            call 0x4754
00003EF5  C3                ret
00003EF6  8B1EFD43          mov bx,[0x43fd]
00003EFA  2B1E1244          sub bx,[0x4412]
00003EFE  8BC3              mov ax,bx
00003F00  8A1E0344          mov bl,[0x4403]
00003F04  32FF              xor bh,bh
00003F06  33D2              xor dx,dx
00003F08  F7F3              div bx
00003F0A  050200            add ax,0x2
00003F0D  8BD8              mov bx,ax
00003F0F  803E1444FF        cmp byte [0x4414],0xff
00003F14  7431              jz 0x3f47
00003F16  8BD3              mov dx,bx
00003F18  D1EA              shr dx,1
00003F1A  03DA              add bx,dx
00003F1C  A90100            test ax,0x1
00003F1F  750F              jnz 0x3f30
00003F21  8B87FF55          mov ax,[bx+0x55ff]
00003F25  25F70F            and ax,0xff7
00003F28  3DF70F            cmp ax,0xff7
00003F2B  7525              jnz 0x3f52
00003F2D  EB0D              jmp short 0x3f3c
00003F2F  90                nop
00003F30  8B87FF55          mov ax,[bx+0x55ff]
00003F34  2570FF            and ax,0xff70
00003F37  3D70FF            cmp ax,0xff70
00003F3A  7516              jnz 0x3f52
00003F3C  A00344            mov al,[0x4403]
00003F3F  32E4              xor ah,ah
00003F41  0106FD43          add [0x43fd],ax
00003F45  EBAF              jmp short 0x3ef6
00003F47  D1E3              shl bx,1
00003F49  83BFFF55F7        cmp word [bx+0x55ff],byte -0x9
00003F4E  7502              jnz 0x3f52
00003F50  EBEA              jmp short 0x3f3c
00003F52  C3                ret
00003F53  53                push bx
00003F54  6F                outsw
00003F55  7272              jc 0x3fc9
00003F57  792C              jns 0x3f85
00003F59  20796F            and [bx+di+0x6f],bh
00003F5C  7520              jnz 0x3f7e
00003F5E  646F              fs outsw
00003F60  6E                outsb
00003F61  60                pusha
00003F62  7420              jz 0x3f84
00003F64  686176            push word 0x7661
00003F67  65206120          and [gs:bx+di+0x20],ah
00003F6B  6669786564206469  imul edi,[bx+si+0x65],dword 0x69642064
00003F73  736B              jnc 0x3fe0
00003F75  206472            and [si+0x72],ah
00003F78  6976650620        imul si,[bp+0x65],word 0x2006
00003F7D  2020              and [bx+si],ah
00003F7F  2020              and [bx+si],ah
00003F81  2020              and [bx+si],ah
00003F83  2020              and [bx+si],ah
00003F85  2020              and [bx+si],ah
00003F87  54                push sp
00003F88  686973            push word 0x7369
00003F8B  207465            and [si+0x65],dh
00003F8E  7374              jnc 0x4004
00003F90  207265            and [bp+si+0x65],dh
00003F93  7175              jno 0x400a
00003F95  6972657320        imul si,[bp+si+0x65],word 0x2073
00003F9A  61                popa
00003F9B  626F75            bound bp,[bx+0x75]
00003F9E  7420              jz 0x3fc0
00003FA0  3230              xor dh,[bx+si]
00003FA2  206D69            and [di+0x69],ch
00003FA5  6E                outsb
00003FA6  7574              jnz 0x401c
00003FA8  657320            gs jnc 0x3fcb
00003FAB  666F              outsd
00003FAD  7220              jc 0x3fcf
00003FAF  61                popa
00003FB0  2031              and [bx+di],dh
00003FB2  3020              xor [bx+si],ah
00003FB4  6D                insw
00003FB5  656761            gs a32 popa
00003FB8  627974            bound di,[bx+di+0x74]
00003FBB  65206472          and [gs:si+0x72],ah
00003FBF  6976650D20        imul si,[bp+0x65],word 0x200d
00003FC4  2020              and [bx+si],ah
00003FC6  2020              and [bx+si],ah
00003FC8  2020              and [bx+si],ah
00003FCA  2020              and [bx+si],ah
00003FCC  2020              and [bx+si],ah
00003FCE  2020              and [bx+si],ah
00003FD0  2020              and [bx+si],ah
00003FD2  2020              and [bx+si],ah
00003FD4  2020              and [bx+si],ah
00003FD6  6F                outsw
00003FD7  7220              jc 0x3ff9
00003FD9  61                popa
00003FDA  626F75            bound bp,[bx+0x75]
00003FDD  7420              jz 0x3fff
00003FDF  3430              xor al,0x30
00003FE1  206D69            and [di+0x69],ch
00003FE4  6E                outsb
00003FE5  7574              jnz 0x405b
00003FE7  657320            gs jnc 0x400a
00003FEA  666F              outsd
00003FEC  7220              jc 0x400e
00003FEE  61                popa
00003FEF  2032              and [bp+si],dh
00003FF1  3020              xor [bx+si],ah
00003FF3  6D                insw
00003FF4  656761            gs a32 popa
00003FF7  627974            bound di,[bx+di+0x74]
00003FFA  65206472          and [gs:si+0x72],ah
00003FFE  6976650D0D        imul si,[bp+0x65],word 0xd0d
00004003  0D0D24            or ax,0x240d
00004006  0220              add ah,[bx+si]
00004008  2020              and [bx+si],ah
0000400A  2020              and [bx+si],ah
0000400C  2020              and [bx+si],ah
0000400E  2020              and [bx+si],ah
00004010  2020              and [bx+si],ah
00004012  2020              and [bx+si],ah
00004014  2020              and [bx+si],ah
00004016  42                inc dx
00004017  65666F            gs outsd
0000401A  7265              jc 0x4081
0000401C  207072            and [bx+si+0x72],dh
0000401F  6F                outsw
00004020  636565            arpl [di+0x65],sp
00004023  64696E672077      imul bp,[fs:bp+0x67],word 0x7720
00004029  6974682074        imul si,[si+0x68],word 0x7420
0000402E  686520            push word 0x2065
00004031  7465              jz 0x4098
00004033  7374              jnc 0x40a9
00004035  206D61            and [di+0x61],ch
00004038  6B652073          imul sp,[di+0x20],byte +0x73
0000403C  7572              jnz 0x40b0
0000403E  6520796F          and [gs:bx+di+0x6f],bh
00004042  7520              jnz 0x4064
00004044  686176            push word 0x7661
00004047  650D2020          gs or ax,0x2020
0000404B  2020              and [bx+si],ah
0000404D  2020              and [bx+si],ah
0000404F  2020              and [bx+si],ah
00004051  2020              and [bx+si],ah
00004053  2020              and [bx+si],ah
00004055  2020              and [bx+si],ah
00004057  2020              and [bx+si],ah
00004059  2020              and [bx+si],ah
0000405B  7265              jc 0x40c2
0000405D  61                popa
0000405E  64207468          and [fs:si+0x68],dh
00004062  65207365          and [gs:bp+di+0x65],dh
00004066  637469            arpl [si+0x69],si
00004069  6F                outsw
0000406A  6E                outsb
0000406B  20696E            and [bx+di+0x6e],ch
0000406E  20796F            and [bx+di+0x6f],bh
00004071  7572              jnz 0x40e5
00004073  204775            and [bx+0x75],al
00004076  6964652074        imul sp,[si+0x65],word 0x7420
0000407B  6F                outsw
0000407C  204F70            and [bx+0x70],cl
0000407F  657261            gs jc 0x40e3
00004082  7469              jz 0x40ed
00004084  6F                outsw
00004085  6E                outsb
00004086  730D              jnc 0x4095
00004088  2020              and [bx+si],ah
0000408A  2020              and [bx+si],ah
0000408C  2020              and [bx+si],ah
0000408E  2020              and [bx+si],ah
00004090  2020              and [bx+si],ah
00004092  2020              and [bx+si],ah
00004094  2020              and [bx+si],ah
00004096  2020              and [bx+si],ah
00004098  4D                dec bp
00004099  61                popa
0000409A  6E                outsb
0000409B  7561              jnz 0x40fe
0000409D  6C                insb
0000409E  207768            and [bx+0x68],dh
000040A1  6963682064        imul sp,[bp+di+0x68],word 0x6420
000040A6  657363            gs jnc 0x410c
000040A9  7269              jc 0x4114
000040AB  626573            bound sp,[di+0x73]
000040AE  207468            and [si+0x68],dh
000040B1  65206669          and [gs:bp+0x69],ah
000040B5  7865              js 0x411c
000040B7  64206469          and [fs:si+0x69],ah
000040BB  736B              jnc 0x4128
000040BD  207465            and [si+0x65],dh
000040C0  7374              jnc 0x4136
000040C2  2E2020            and [cs:bx+si],ah
000040C5  54                push sp
000040C6  686973            push word 0x7369
000040C9  0D2020            or ax,0x2020
000040CC  2020              and [bx+si],ah
000040CE  2020              and [bx+si],ah
000040D0  2020              and [bx+si],ah
000040D2  2020              and [bx+si],ah
000040D4  2020              and [bx+si],ah
000040D6  2020              and [bx+si],ah
000040D8  2020              and [bx+si],ah
000040DA  207769            and [bx+0x69],dh
000040DD  6C                insb
000040DE  6C                insb
000040DF  20616C            and [bx+di+0x6c],ah
000040E2  6C                insb
000040E3  6F                outsw
000040E4  7720              ja 0x4106
000040E6  796F              jns 0x4157
000040E8  7520              jnz 0x410a
000040EA  746F              jz 0x415b
000040EC  206265            and [bp+si+0x65],ah
000040EF  7474              jz 0x4165
000040F1  657220            gs jc 0x4114
000040F4  756E              jnz 0x4164
000040F6  64657273          gs jc 0x416d
000040FA  7461              jz 0x415d
000040FC  6E                outsb
000040FD  64207468          and [fs:si+0x68],dh
00004101  65206572          and [gs:di+0x72],ah
00004105  726F              jc 0x4176
00004107  7273              jc 0x417c
00004109  0D2020            or ax,0x2020
0000410C  2020              and [bx+si],ah
0000410E  2020              and [bx+si],ah
00004110  2020              and [bx+si],ah
00004112  2020              and [bx+si],ah
00004114  2020              and [bx+si],ah
00004116  2020              and [bx+si],ah
00004118  2020              and [bx+si],ah
0000411A  2020              and [bx+si],ah
0000411C  2020              and [bx+si],ah
0000411E  2020              and [bx+si],ah
00004120  2020              and [bx+si],ah
00004122  2020              and [bx+si],ah
00004124  2020              and [bx+si],ah
00004126  2020              and [bx+si],ah
00004128  7768              ja 0x4192
0000412A  6963682061        imul sp,[bp+di+0x68],word 0x6120
0000412F  7265              jc 0x4196
00004131  207265            and [bp+si+0x65],dh
00004134  706F              jo 0x41a5
00004136  7274              jc 0x41ac
00004138  65642E0007        add [cs:bx],al
0000413D  2020              and [bx+si],ah
0000413F  2020              and [bx+si],ah
00004141  2020              and [bx+si],ah
00004143  2020              and [bx+si],ah
00004145  2020              and [bx+si],ah
00004147  2020              and [bx+si],ah
00004149  2020              and [bx+si],ah
0000414B  2020              and [bx+si],ah
0000414D  2020              and [bx+si],ah
0000414F  2020              and [bx+si],ah
00004151  2020              and [bx+si],ah
00004153  205748            and [bx+0x48],dl
00004156  49                dec cx
00004157  43                inc bx
00004158  48                dec ax
00004159  204452            and [si+0x52],al
0000415C  49                dec cx
0000415D  56                push si
0000415E  45                inc bp
0000415F  285329            sub [bp+di+0x29],dl
00004162  20574F            and [bx+0x4f],dl
00004165  55                push bp
00004166  4C                dec sp
00004167  44                inc sp
00004168  20594F            and [bx+di+0x4f],bl
0000416B  55                push bp
0000416C  204C49            and [si+0x49],cl
0000416F  4B                dec bx
00004170  45                inc bp
00004171  20544F            and [si+0x4f],dl
00004174  205445            and [si+0x45],dl
00004177  53                push bx
00004178  54                push sp
00004179  3F                aas
0000417A  0D0D20            or ax,0x200d
0000417D  2020              and [bx+si],ah
0000417F  2020              and [bx+si],ah
00004181  2020              and [bx+si],ah
00004183  2020              and [bx+si],ah
00004185  2020              and [bx+si],ah
00004187  2020              and [bx+si],ah
00004189  2020              and [bx+si],ah
0000418B  2020              and [bx+si],ah
0000418D  2020              and [bx+si],ah
0000418F  2020              and [bx+si],ah
00004191  2020              and [bx+si],ah
00004193  2020              and [bx+si],ah
00004195  2020              and [bx+si],ah
00004197  2020              and [bx+si],ah
00004199  2020              and [bx+si],ah
0000419B  2020              and [bx+si],ah
0000419D  2020              and [bx+si],ah
0000419F  312D              xor [di],bp
000041A1  2D2D2D            sub ax,0x2d2d
000041A4  2D2D2D            sub ax,0x2d2d
000041A7  46                inc si
000041A8  49                dec cx
000041A9  58                pop ax
000041AA  45                inc bp
000041AB  44                inc sp
000041AC  204449            and [si+0x49],al
000041AF  53                push bx
000041B0  4B                dec bx
000041B1  204452            and [si+0x52],al
000041B4  49                dec cx
000041B5  56                push si
000041B6  45                inc bp
000041B7  2030              and [bx+si],dh
000041B9  204F4E            and [bx+0x4e],cl
000041BC  4C                dec sp
000041BD  59                pop cx
000041BE  0D2020            or ax,0x2020
000041C1  2020              and [bx+si],ah
000041C3  2020              and [bx+si],ah
000041C5  2020              and [bx+si],ah
000041C7  2020              and [bx+si],ah
000041C9  2020              and [bx+si],ah
000041CB  2020              and [bx+si],ah
000041CD  2020              and [bx+si],ah
000041CF  2020              and [bx+si],ah
000041D1  2020              and [bx+si],ah
000041D3  2020              and [bx+si],ah
000041D5  2020              and [bx+si],ah
000041D7  2020              and [bx+si],ah
000041D9  2020              and [bx+si],ah
000041DB  2020              and [bx+si],ah
000041DD  2020              and [bx+si],ah
000041DF  2020              and [bx+si],ah
000041E1  2032              and [bp+si],dh
000041E3  2D2D2D            sub ax,0x2d2d
000041E6  2D2D2D            sub ax,0x2d2d
000041E9  2D4649            sub ax,0x4946
000041EC  58                pop ax
000041ED  45                inc bp
000041EE  44                inc sp
000041EF  204449            and [si+0x49],al
000041F2  53                push bx
000041F3  4B                dec bx
000041F4  204452            and [si+0x52],al
000041F7  49                dec cx
000041F8  56                push si
000041F9  45                inc bp
000041FA  2031              and [bx+di],dh
000041FC  204F4E            and [bx+0x4e],cl
000041FF  4C                dec sp
00004200  59                pop cx
00004201  0D2020            or ax,0x2020
00004204  2020              and [bx+si],ah
00004206  2020              and [bx+si],ah
00004208  2020              and [bx+si],ah
0000420A  2020              and [bx+si],ah
0000420C  2020              and [bx+si],ah
0000420E  2020              and [bx+si],ah
00004210  2020              and [bx+si],ah
00004212  2020              and [bx+si],ah
00004214  2020              and [bx+si],ah
00004216  2020              and [bx+si],ah
00004218  2020              and [bx+si],ah
0000421A  2020              and [bx+si],ah
0000421C  2020              and [bx+si],ah
0000421E  2020              and [bx+si],ah
00004220  2020              and [bx+si],ah
00004222  2020              and [bx+si],ah
00004224  2033              and [bp+di],dh
00004226  2D2D2D            sub ax,0x2d2d
00004229  2D2D2D            sub ax,0x2d2d
0000422C  2D424F            sub ax,0x4f42
0000422F  54                push sp
00004230  48                dec ax
00004231  204452            and [si+0x52],al
00004234  49                dec cx
00004235  56                push si
00004236  45                inc bp
00004237  53                push bx
00004238  00062020          add [0x2020],al
0000423C  2020              and [bx+si],ah
0000423E  2020              and [bx+si],ah
00004240  2020              and [bx+si],ah
00004242  2020              and [bx+si],ah
00004244  2020              and [bx+si],ah
00004246  2020              and [bx+si],ah
00004248  2020              and [bx+si],ah
0000424A  2020              and [bx+si],ah
0000424C  2020              and [bx+si],ah
0000424E  2020              and [bx+si],ah
00004250  2020              and [bx+si],ah
00004252  2020              and [bx+si],ah
00004254  2020              and [bx+si],ah
00004256  2020              and [bx+si],ah
00004258  2020              and [bx+si],ah
0000425A  2020              and [bx+si],ah
0000425C  205645            and [bp+0x45],dl
0000425F  52                push dx
00004260  49                dec cx
00004261  46                inc si
00004262  59                pop cx
00004263  49                dec cx
00004264  4E                dec si
00004265  47                inc di
00004266  2402              and al,0x2
00004268  0D2020            or ax,0x2020
0000426B  2020              and [bx+si],ah
0000426D  2020              and [bx+si],ah
0000426F  2020              and [bx+si],ah
00004271  2020              and [bx+si],ah
00004273  2020              and [bx+si],ah
00004275  2020              and [bx+si],ah
00004277  2020              and [bx+si],ah
00004279  2020              and [bx+si],ah
0000427B  2020              and [bx+si],ah
0000427D  2020              and [bx+si],ah
0000427F  204472            and [si+0x72],al
00004282  6976652020        imul si,[bp+0x65],word 0x2020
00004287  2020              and [bx+si],ah
00004289  204865            and [bx+si+0x65],cl
0000428C  61                popa
0000428D  642020            and [fs:bx+si],ah
00004290  2020              and [bx+si],ah
00004292  54                push sp
00004293  7261              jc 0x42f6
00004295  636B20            arpl [bp+di+0x20],bp
00004298  2020              and [bx+si],ah
0000429A  205365            and [bp+di+0x65],dl
0000429D  63746F            arpl [si+0x6f],si
000042A0  7200              jc 0x42a2
000042A2  0B20              or sp,[bx+si]
000042A4  2030              and [bx+si],dh
000042A6  2020              and [bx+si],ah
000042A8  2020              and [bx+si],ah
000042AA  2020              and [bx+si],ah
000042AC  2020              and [bx+si],ah
000042AE  3020              xor [bx+si],ah
000042B0  2020              and [bx+si],ah
000042B2  2020              and [bx+si],ah
000042B4  2020              and [bx+si],ah
000042B6  3030              xor [bx+si],dh
000042B8  3020              xor [bx+si],ah
000042BA  2020              and [bx+si],ah
000042BC  2020              and [bx+si],ah
000042BE  2020              and [bx+si],ah
000042C0  3030              xor [bx+si],dh
000042C2  2020              and [bx+si],ah
000042C4  0003              add [bp+di],al
000042C6  2020              and [bx+si],ah
000042C8  2020              and [bx+si],ah
000042CA  2020              and [bx+si],ah
000042CC  2020              and [bx+si],ah
000042CE  2020              and [bx+si],ah
000042D0  2020              and [bx+si],ah
000042D2  2020              and [bx+si],ah
000042D4  2020              and [bx+si],ah
000042D6  2020              and [bx+si],ah
000042D8  2020              and [bx+si],ah
000042DA  2020              and [bx+si],ah
000042DC  205448            and [si+0x48],dl
000042DF  45                inc bp
000042E0  204553            and [di+0x53],al
000042E3  43                inc bx
000042E4  41                inc cx
000042E5  50                push ax
000042E6  45                inc bp
000042E7  204B45            and [bp+di+0x45],cl
000042EA  59                pop cx
000042EB  205749            and [bx+0x49],dl
000042EE  4C                dec sp
000042EF  4C                dec sp
000042F0  204142            and [bx+di+0x42],al
000042F3  4F                dec di
000042F4  52                push dx
000042F5  54                push sp
000042F6  205448            and [si+0x48],dl
000042F9  45                inc bp
000042FA  205445            and [si+0x45],dl
000042FD  53                push bx
000042FE  54                push sp
000042FF  0004              add [si],al
00004301  42                inc dx
00004302  6F                outsw
00004303  6F                outsw
00004304  7420              jz 0x4326
00004306  53                push bx
00004307  6563746F          arpl [gs:si+0x6f],si
0000430B  7220              jc 0x432d
0000430D  45                inc bp
0000430E  7272              jc 0x4382
00004310  6F                outsw
00004311  7220              jc 0x4333
00004313  44                inc sp
00004314  657465            gs jz 0x437c
00004317  637465            arpl [si+0x65],si
0000431A  64202D            and [fs:di],ch
0000431D  205275            and [bp+si+0x75],dl
00004320  6E                outsb
00004321  205052            and [bx+si+0x52],dl
00004324  45                inc bp
00004325  50                push ax
00004326  41                inc cx
00004327  52                push dx
00004328  45                inc bp
00004329  0004              add [si],al
0000432B  45                inc bp
0000432C  7272              jc 0x43a0
0000432E  6F                outsw
0000432F  7220              jc 0x4351
00004331  44                inc sp
00004332  657465            gs jz 0x439a
00004335  637465            arpl [si+0x65],si
00004338  6420696E          and [fs:bx+di+0x6e],ch
0000433C  204641            and [bp+0x41],al
0000433F  54                push sp
00004340  206F72            and [bx+0x72],ch
00004343  204469            and [si+0x69],al
00004346  7265              jc 0x43ad
00004348  63746F            arpl [si+0x6f],si
0000434B  7279              jc 0x43c6
0000434D  205365            and [bp+di+0x65],dl
00004350  63746F            arpl [si+0x6f],si
00004353  720D              jc 0x4362
00004355  2020              and [bx+si],ah
00004357  2020              and [bx+si],ah
00004359  2020              and [bx+si],ah
0000435B  2020              and [bx+si],ah
0000435D  2020              and [bx+si],ah
0000435F  2020              and [bx+si],ah
00004361  2020              and [bx+si],ah
00004363  2020              and [bx+si],ah
00004365  2020              and [bx+si],ah
00004367  2020              and [bx+si],ah
00004369  2020              and [bx+si],ah
0000436B  2020              and [bx+si],ah
0000436D  2020              and [bx+si],ah
0000436F  42                inc dx
00004370  41                inc cx
00004371  43                inc bx
00004372  4B                dec bx
00004373  55                push bp
00004374  50                push ax
00004375  206669            and [bp+0x69],ah
00004378  6C                insb
00004379  657320            gs jnc 0x439c
0000437C  61                popa
0000437D  6E                outsb
0000437E  64207275          and [fs:bp+si+0x75],dh
00004382  6E                outsb
00004383  205052            and [bx+si+0x52],dl
00004386  45                inc bp
00004387  50                push ax
00004388  41                inc cx
00004389  52                push dx
0000438A  45                inc bp
0000438B  0004              add [si],al
0000438D  46                inc si
0000438E  6978656420        imul di,[bx+si+0x65],word 0x2064
00004393  44                inc sp
00004394  69736B2045        imul si,[bp+di+0x6b],word 0x4520
00004399  7272              jc 0x440d
0000439B  6F                outsw
0000439C  7220              jc 0x43be
0000439E  44                inc sp
0000439F  657465            gs jz 0x4407
000043A2  637465            arpl [si+0x65],si
000043A5  64202D            and [fs:di],ch
000043A8  204241            and [bp+si+0x41],al
000043AB  43                inc bx
000043AC  4B                dec bx
000043AD  55                push bp
000043AE  50                push ax
000043AF  206669            and [bp+0x69],ah
000043B2  6C                insb
000043B3  65730D            gs jnc 0x43c3
000043B6  2020              and [bx+si],ah
000043B8  2020              and [bx+si],ah
000043BA  2020              and [bx+si],ah
000043BC  2020              and [bx+si],ah
000043BE  2020              and [bx+si],ah
000043C0  2020              and [bx+si],ah
000043C2  2020              and [bx+si],ah
000043C4  2020              and [bx+si],ah
000043C6  2020              and [bx+si],ah
000043C8  2020              and [bx+si],ah
000043CA  2020              and [bx+si],ah
000043CC  2020              and [bx+si],ah
000043CE  2020              and [bx+si],ah
000043D0  20616E            and [bx+di+0x6e],ah
000043D3  64207275          and [fs:bp+si+0x75],dh
000043D7  6E                outsb
000043D8  205052            and [bx+si+0x52],dl
000043DB  45                inc bp
000043DC  50                push ax
000043DD  41                inc cx
000043DE  52                push dx
000043DF  45                inc bp
000043E0  000A              add [bp+si],cl
000043E2  46                inc si
000043E3  6978656420        imul di,[bx+si+0x65],word 0x2064
000043E8  44                inc sp
000043E9  69736B2054        imul si,[bp+di+0x6b],word 0x5420
000043EE  657374            gs jnc 0x4465
000043F1  202D              and [di],ch
000043F3  205041            and [bx+si+0x41],dl
000043F6  53                push bx
000043F7  53                push bx
000043F8  45                inc bp
000043F9  44                inc sp
000043FA  0000              add [bx+si],al
000043FC  0000              add [bx+si],al
000043FE  0000              add [bx+si],al
00004400  0000              add [bx+si],al
00004402  0000              add [bx+si],al
00004404  0000              add [bx+si],al
00004406  0000              add [bx+si],al
00004408  0000              add [bx+si],al
0000440A  0000              add [bx+si],al
0000440C  0000              add [bx+si],al
0000440E  0000              add [bx+si],al
00004410  0000              add [bx+si],al
00004412  0000              add [bx+si],al
00004414  00804020          add [bx+si+0x2040],al
00004418  1208              adc cl,[bx+si]
0000441A  0402              add al,0x2
0000441C  0C0B              or al,0xb
0000441E  0A08              or cl,[bx+si]
00004420  07                pop es
00004421  06                push es
00004422  050403            add ax,0x304
00004425  0201              add al,[bx+di]
00004427  4B                dec bx
00004428  44                inc sp
00004429  7344              jnc 0x446f
0000442B  9B44              wait inc sp
0000442D  C3                ret
0000442E  44                inc sp
0000442F  EB44              jmp short 0x4475
00004431  13453B            adc ax,[di+0x3b]
00004434  45                inc bp
00004435  63458B            arpl [di-0x75],ax
00004438  45                inc bp
00004439  B345              mov bl,0x45
0000443B  DB4503            fild dword [di+0x3]
0000443E  46                inc si
0000443F  2B4653            sub ax,[bp+0x53]
00004442  46                inc si
00004443  7B46              jpo 0x448b
00004445  A346CB            mov [0xcb46],ax
00004448  46                inc si
00004449  F346              rep inc si
0000444B  2020              and [bx+si],ah
0000444D  2020              and [bx+si],ah
0000444F  2020              and [bx+si],ah
00004451  41                inc cx
00004452  7474              jz 0x44c8
00004454  61                popa
00004455  63686D            arpl [bx+si+0x6d],bp
00004458  656E              gs outsb
0000445A  7420              jz 0x447c
0000445C  6661              popad
0000445E  696C656420        imul bp,[si+0x65],word 0x2064
00004463  746F              jz 0x44d4
00004465  207265            and [bp+si+0x65],dh
00004468  7370              jnc 0x44da
0000446A  6F                outsw
0000446B  6E                outsb
0000446C  642020            and [fs:bx+si],ah
0000446F  2020              and [bx+si],ah
00004471  2020              and [bx+si],ah
00004473  2020              and [bx+si],ah
00004475  2020              and [bx+si],ah
00004477  2020              and [bx+si],ah
00004479  2020              and [bx+si],ah
0000447B  205345            and [bp+di+0x45],dl
0000447E  45                inc bp
0000447F  4B                dec bx
00004480  206F70            and [bx+0x70],ch
00004483  657261            gs jc 0x44e7
00004486  7469              jz 0x44f1
00004488  6F                outsw
00004489  6E                outsb
0000448A  206661            and [bp+0x61],ah
0000448D  696C656420        imul bp,[si+0x65],word 0x2064
00004492  2020              and [bx+si],ah
00004494  2020              and [bx+si],ah
00004496  2020              and [bx+si],ah
00004498  2020              and [bx+si],ah
0000449A  2020              and [bx+si],ah
0000449C  2020              and [bx+si],ah
0000449E  2020              and [bx+si],ah
000044A0  2020              and [bx+si],ah
000044A2  2020              and [bx+si],ah
000044A4  2020              and [bx+si],ah
000044A6  43                inc bx
000044A7  6F                outsw
000044A8  6E                outsb
000044A9  7472              jz 0x451d
000044AB  6F                outsw
000044AC  6C                insb
000044AD  6C                insb
000044AE  657220            gs jc 0x44d1
000044B1  6661              popad
000044B3  696C757265        imul bp,[si+0x75],word 0x6572
000044B8  2020              and [bx+si],ah
000044BA  2020              and [bx+si],ah
000044BC  2020              and [bx+si],ah
000044BE  2020              and [bx+si],ah
000044C0  2020              and [bx+si],ah
000044C2  2020              and [bx+si],ah
000044C4  2020              and [bx+si],ah
000044C6  2020              and [bx+si],ah
000044C8  204669            and [bp+0x69],al
000044CB  7865              js 0x4532
000044CD  64204469          and [fs:si+0x69],al
000044D1  736B              jnc 0x453e
000044D3  206973            and [bx+di+0x73],ch
000044D6  206E6F            and [bp+0x6f],ch
000044D9  7420              jz 0x44fb
000044DB  666F              outsd
000044DD  726D              jc 0x454c
000044DF  61                popa
000044E0  7474              jz 0x4556
000044E2  65642020          and [fs:bx+si],ah
000044E6  2020              and [bx+si],ah
000044E8  2020              and [bx+si],ah
000044EA  2020              and [bx+si],ah
000044EC  2020              and [bx+si],ah
000044EE  2020              and [bx+si],ah
000044F0  2020              and [bx+si],ah
000044F2  20444D            and [si+0x4d],al
000044F5  41                inc cx
000044F6  206F76            and [bx+0x76],ch
000044F9  657272            gs jc 0x456e
000044FC  756E              jnz 0x456c
000044FE  206F6E            and [bx+0x6e],ch
00004501  206F70            and [bx+0x70],ch
00004504  657261            gs jc 0x4568
00004507  7469              jz 0x4572
00004509  6F                outsw
0000450A  6E                outsb
0000450B  2020              and [bx+si],ah
0000450D  2020              and [bx+si],ah
0000450F  2020              and [bx+si],ah
00004511  2020              and [bx+si],ah
00004513  2020              and [bx+si],ah
00004515  2020              and [bx+si],ah
00004517  2020              and [bx+si],ah
00004519  205265            and [bp+si+0x65],dl
0000451C  7175              jno 0x4593
0000451E  657374            gs jnc 0x4595
00004521  6564207365        and [fs:bp+di+0x65],dh
00004526  63746F            arpl [si+0x6f],si
00004529  7220              jc 0x454b
0000452B  6E                outsb
0000452C  6F                outsw
0000452D  7420              jz 0x454f
0000452F  666F              outsd
00004531  756E              jnz 0x45a1
00004533  642020            and [fs:bx+si],ah
00004536  2020              and [bx+si],ah
00004538  2020              and [bx+si],ah
0000453A  2020              and [bx+si],ah
0000453C  2020              and [bx+si],ah
0000453E  2020              and [bx+si],ah
00004540  2020              and [bx+si],ah
00004542  2020              and [bx+si],ah
00004544  41                inc cx
00004545  64647265          fs jc 0x45ae
00004549  7373              jnc 0x45be
0000454B  206D61            and [di+0x61],ch
0000454E  726B              jc 0x45bb
00004550  206E6F            and [bp+0x6f],ch
00004553  7420              jz 0x4575
00004555  666F              outsd
00004557  756E              jnz 0x45c7
00004559  642020            and [fs:bx+si],ah
0000455C  2020              and [bx+si],ah
0000455E  2020              and [bx+si],ah
00004560  2020              and [bx+si],ah
00004562  2020              and [bx+si],ah
00004564  2020              and [bx+si],ah
00004566  2020              and [bx+si],ah
00004568  2020              and [bx+si],ah
0000456A  2020              and [bx+si],ah
0000456C  2020              and [bx+si],ah
0000456E  204765            and [bx+0x65],al
00004571  6E                outsb
00004572  657261            gs jc 0x45d6
00004575  6C                insb
00004576  204661            and [bp+0x61],al
00004579  696C757265        imul bp,[si+0x75],word 0x6572
0000457E  2020              and [bx+si],ah
00004580  2020              and [bx+si],ah
00004582  2020              and [bx+si],ah
00004584  2020              and [bx+si],ah
00004586  2020              and [bx+si],ah
00004588  2020              and [bx+si],ah
0000458A  2020              and [bx+si],ah
0000458C  2020              and [bx+si],ah
0000458E  2020              and [bx+si],ah
00004590  2020              and [bx+si],ah
00004592  2020              and [bx+si],ah
00004594  2020              and [bx+si],ah
00004596  2020              and [bx+si],ah
00004598  2020              and [bx+si],ah
0000459A  52                push dx
0000459B  6561              gs popa
0000459D  64206661          and [fs:bp+0x61],ah
000045A1  756C              jnz 0x460f
000045A3  7420              jz 0x45c5
000045A5  2020              and [bx+si],ah
000045A7  2020              and [bx+si],ah
000045A9  2020              and [bx+si],ah
000045AB  2020              and [bx+si],ah
000045AD  2020              and [bx+si],ah
000045AF  2020              and [bx+si],ah
000045B1  2020              and [bx+si],ah
000045B3  2020              and [bx+si],ah
000045B5  2020              and [bx+si],ah
000045B7  2020              and [bx+si],ah
000045B9  2020              and [bx+si],ah
000045BB  2020              and [bx+si],ah
000045BD  2020              and [bx+si],ah
000045BF  2020              and [bx+si],ah
000045C1  57                push di
000045C2  7269              jc 0x462d
000045C4  7465              jz 0x462b
000045C6  206661            and [bp+0x61],ah
000045C9  756C              jnz 0x4637
000045CB  7420              jz 0x45ed
000045CD  2020              and [bx+si],ah
000045CF  2020              and [bx+si],ah
000045D1  2020              and [bx+si],ah
000045D3  2020              and [bx+si],ah
000045D5  2020              and [bx+si],ah
000045D7  2020              and [bx+si],ah
000045D9  2020              and [bx+si],ah
000045DB  2020              and [bx+si],ah
000045DD  2020              and [bx+si],ah
000045DF  2020              and [bx+si],ah
000045E1  2020              and [bx+si],ah
000045E3  2020              and [bx+si],ah
000045E5  2020              and [bx+si],ah
000045E7  53                push bx
000045E8  6563746F          arpl [gs:si+0x6f],si
000045EC  7220              jc 0x460e
000045EE  6E                outsb
000045EF  6F                outsw
000045F0  7420              jz 0x4612
000045F2  666F              outsd
000045F4  756E              jnz 0x4664
000045F6  642020            and [fs:bx+si],ah
000045F9  2020              and [bx+si],ah
000045FB  2020              and [bx+si],ah
000045FD  2020              and [bx+si],ah
000045FF  2020              and [bx+si],ah
00004601  2020              and [bx+si],ah
00004603  2020              and [bx+si],ah
00004605  2020              and [bx+si],ah
00004607  2020              and [bx+si],ah
00004609  2020              and [bx+si],ah
0000460B  2020              and [bx+si],ah
0000460D  20556E            and [di+0x6e],dl
00004610  6B6E6F77          imul bp,[bp+0x6f],byte +0x77
00004614  6E                outsb
00004615  206D65            and [di+0x65],ch
00004618  646961207479      imul sp,[fs:bx+di+0x20],word 0x7974
0000461E  7065              jo 0x4685
00004620  2020              and [bx+si],ah
00004622  2020              and [bx+si],ah
00004624  2020              and [bx+si],ah
00004626  2020              and [bx+si],ah
00004628  2020              and [bx+si],ah
0000462A  2020              and [bx+si],ah
0000462C  2020              and [bx+si],ah
0000462E  2020              and [bx+si],ah
00004630  2020              and [bx+si],ah
00004632  2020              and [bx+si],ah
00004634  2020              and [bx+si],ah
00004636  2020              and [bx+si],ah
00004638  2020              and [bx+si],ah
0000463A  53                push bx
0000463B  65656B2065        imul sp,[gs:bx+si],byte +0x65
00004640  7272              jc 0x46b4
00004642  6F                outsw
00004643  7220              jc 0x4665
00004645  2020              and [bx+si],ah
00004647  2020              and [bx+si],ah
00004649  2020              and [bx+si],ah
0000464B  2020              and [bx+si],ah
0000464D  2020              and [bx+si],ah
0000464F  2020              and [bx+si],ah
00004651  2020              and [bx+si],ah
00004653  2020              and [bx+si],ah
00004655  2020              and [bx+si],ah
00004657  2020              and [bx+si],ah
00004659  42                inc dx
0000465A  61                popa
0000465B  64207265          and [fs:bp+si+0x65],dh
0000465F  7175              jno 0x46d6
00004661  657374            gs jnc 0x46d8
00004664  207374            and [bp+di+0x74],dh
00004667  7275              jc 0x46de
00004669  637475            arpl [si+0x75],si
0000466C  7265              jc 0x46d3
0000466E  206C65            and [si+0x65],ch
00004671  6E                outsb
00004672  677468            jz 0x46dd
00004675  2020              and [bx+si],ah
00004677  2020              and [bx+si],ah
00004679  2020              and [bx+si],ah
0000467B  2020              and [bx+si],ah
0000467D  2020              and [bx+si],ah
0000467F  2020              and [bx+si],ah
00004681  2020              and [bx+si],ah
00004683  2020              and [bx+si],ah
00004685  2020              and [bx+si],ah
00004687  44                inc sp
00004688  61                popa
00004689  7461              jz 0x46ec
0000468B  206572            and [di+0x72],ah
0000468E  726F              jc 0x46ff
00004690  7220              jc 0x46b2
00004692  284352            sub [bp+di+0x52],al
00004695  43                inc bx
00004696  2920              sub [bx+si],sp
00004698  2020              and [bx+si],ah
0000469A  2020              and [bx+si],ah
0000469C  2020              and [bx+si],ah
0000469E  2020              and [bx+si],ah
000046A0  2020              and [bx+si],ah
000046A2  2020              and [bx+si],ah
000046A4  2020              and [bx+si],ah
000046A6  2020              and [bx+si],ah
000046A8  2020              and [bx+si],ah
000046AA  2020              and [bx+si],ah
000046AC  2020              and [bx+si],ah
000046AE  20556E            and [di+0x6e],dl
000046B1  6B6E6F77          imul bp,[bp+0x6f],byte +0x77
000046B5  6E                outsb
000046B6  20636F            and [bp+di+0x6f],ah
000046B9  6D                insw
000046BA  6D                insw
000046BB  61                popa
000046BC  6E                outsb
000046BD  642020            and [fs:bx+si],ah
000046C0  2020              and [bx+si],ah
000046C2  2020              and [bx+si],ah
000046C4  2020              and [bx+si],ah
000046C6  2020              and [bx+si],ah
000046C8  2020              and [bx+si],ah
000046CA  2020              and [bx+si],ah
000046CC  2020              and [bx+si],ah
000046CE  2020              and [bx+si],ah
000046D0  2020              and [bx+si],ah
000046D2  2020              and [bx+si],ah
000046D4  2020              and [bx+si],ah
000046D6  204472            and [si+0x72],al
000046D9  697665206E        imul si,[bp+0x65],word 0x6e20
000046DE  6F                outsw
000046DF  7420              jz 0x4701
000046E1  7265              jc 0x4748
000046E3  61                popa
000046E4  647920            fs jns 0x4707
000046E7  2020              and [bx+si],ah
000046E9  2020              and [bx+si],ah
000046EB  2020              and [bx+si],ah
000046ED  2020              and [bx+si],ah
000046EF  2020              and [bx+si],ah
000046F1  2020              and [bx+si],ah
000046F3  2020              and [bx+si],ah
000046F5  2020              and [bx+si],ah
000046F7  2020              and [bx+si],ah
000046F9  2020              and [bx+si],ah
000046FB  2020              and [bx+si],ah
000046FD  2020              and [bx+si],ah
000046FF  2020              and [bx+si],ah
00004701  55                push bp
00004702  6E                outsb
00004703  6B6E6F77          imul bp,[bp+0x6f],byte +0x77
00004707  6E                outsb
00004708  20756E            and [di+0x6e],dh
0000470B  6974202020        imul si,[si+0x20],word 0x2020
00004710  2020              and [bx+si],ah
00004712  2020              and [bx+si],ah
00004714  2020              and [bx+si],ah
00004716  2020              and [bx+si],ah
00004718  2020              and [bx+si],ah
0000471A  20E8              and al,ch
0000471C  73C0              jnc 0x46de
0000471E  E8ACC1            call 0x8cd
00004721  E839C4            call 0xb5d
00004724  E8F1C6            call 0xe18
00004727  E8F2D0            call 0x181c
0000472A  E8E1E1            call 0x290e
0000472D  E85AE8            call 0x2f8a
00004730  E876F4            call 0x3ba9
00004733  C3                ret
00004734  C3                ret
00004735  B403              mov ah,0x3
00004737  8A3EE94F          mov bh,[0x4fe9]
0000473B  CD10              int 0x10
0000473D  C3                ret
0000473E  B80006            mov ax,0x600
00004741  33C9              xor cx,cx
00004743  BA4F18            mov dx,0x184f
00004746  B707              mov bh,0x7
00004748  CD10              int 0x10
0000474A  C3                ret
0000474B  B402              mov ah,0x2
0000474D  8A3EE94F          mov bh,[0x4fe9]
00004751  CD10              int 0x10
00004753  C3                ret
00004754  9C                pushf
00004755  50                push ax
00004756  53                push bx
00004757  51                push cx
00004758  06                push es
00004759  FA                cli
0000475A  33C0              xor ax,ax
0000475C  8EC0              mov es,ax
0000475E  26A17000          mov ax,[es:0x70]
00004762  50                push ax
00004763  B8F048            mov ax,0x48f0
00004766  26A37000          mov [es:0x70],ax
0000476A  FB                sti
0000476B  8A05              mov al,[di]
0000476D  A2EC4F            mov [0x4fec],al
00004770  47                inc di
00004771  8A05              mov al,[di]
00004773  3C24              cmp al,0x24
00004775  7503              jnz 0x477a
00004777  47                inc di
00004778  EBF1              jmp short 0x476b
0000477A  3C0D              cmp al,0xd
0000477C  7426              jz 0x47a4
0000477E  3C00              cmp al,0x0
00004780  742E              jz 0x47b0
00004782  B409              mov ah,0x9
00004784  8A3EE94F          mov bh,[0x4fe9]
00004788  8A1EEC4F          mov bl,[0x4fec]
0000478C  B90100            mov cx,0x1
0000478F  CD10              int 0x10
00004791  E8A1FF            call 0x4735
00004794  FEC2              inc dl
00004796  80FA50            cmp dl,0x50
00004799  7504              jnz 0x479f
0000479B  32D2              xor dl,dl
0000479D  FEC6              inc dh
0000479F  E8A9FF            call 0x474b
000047A2  EBCC              jmp short 0x4770
000047A4  E88EFF            call 0x4735
000047A7  FEC6              inc dh
000047A9  32D2              xor dl,dl
000047AB  E89DFF            call 0x474b
000047AE  EBC0              jmp short 0x4770
000047B0  FA                cli
000047B1  33C0              xor ax,ax
000047B3  8EC0              mov es,ax
000047B5  268F067000        pop word [es:0x70]
000047BA  FB                sti
000047BB  07                pop es
000047BC  59                pop cx
000047BD  5B                pop bx
000047BE  58                pop ax
000047BF  9D                popf
000047C0  C3                ret
000047C1  E80A00            call 0x47ce
000047C4  BA0016            mov dx,0x1600
000047C7  E881FF            call 0x474b
000047CA  E887FF            call 0x4754
000047CD  C3                ret
000047CE  B80006            mov ax,0x600
000047D1  B90016            mov cx,0x1600
000047D4  B703              mov bh,0x3
000047D6  BA4F17            mov dx,0x174f
000047D9  CD10              int 0x10
000047DB  C3                ret
000047DC  06                push es
000047DD  33C0              xor ax,ax
000047DF  8EC0              mov es,ax
000047E1  26C7061A041E00    mov word [es:0x41a],0x1e
000047E8  26C7061C041E00    mov word [es:0x41c],0x1e
000047EF  07                pop es
000047F0  32E4              xor ah,ah
000047F2  CD16              int 0x16
000047F4  C3                ret
000047F5  BF6F4A            mov di,0x4a6f
000047F8  E83AFF            call 0x4735
000047FB  52                push dx
000047FC  B92800            mov cx,0x28
000047FF  0E                push cs
00004800  07                pop es
00004801  FC                cld
00004802  F3A4              rep movsb
00004804  BA0002            mov dx,0x200
00004807  E841FF            call 0x474b
0000480A  BF474A            mov di,0x4a47
0000480D  E844FF            call 0x4754
00004810  5A                pop dx
00004811  E837FF            call 0x474b
00004814  C3                ret
00004815  50                push ax
00004816  53                push bx
00004817  51                push cx
00004818  FA                cli
00004819  BB6000            mov bx,0x60
0000481C  E461              in al,0x61
0000481E  0C03              or al,0x3
00004820  E661              out 0x61,al
00004822  B94000            mov cx,0x40
00004825  E2FE              loop 0x4825
00004827  E461              in al,0x61
00004829  24FD              and al,0xfd
0000482B  E661              out 0x61,al
0000482D  B93000            mov cx,0x30
00004830  E2FE              loop 0x4830
00004832  FECB              dec bl
00004834  75E6              jnz 0x481c
00004836  E461              in al,0x61
00004838  24FC              and al,0xfc
0000483A  E661              out 0x61,al
0000483C  FB                sti
0000483D  59                pop cx
0000483E  5B                pop bx
0000483F  58                pop ax
00004840  C3                ret
00004841  B80006            mov ax,0x600
00004844  B90004            mov cx,0x400
00004847  B707              mov bh,0x7
00004849  BA4F14            mov dx,0x144f
0000484C  CD10              int 0x10
0000484E  C3                ret
0000484F  BA0008            mov dx,0x800
00004852  E8F6FE            call 0x474b
00004855  C3                ret
00004856  BA230A            mov dx,0xa23
00004859  E8EFFE            call 0x474b
0000485C  C3                ret
0000485D  B408              mov ah,0x8
0000485F  CD10              int 0x10
00004861  8AEC              mov ch,ah
00004863  B104              mov cl,0x4
00004865  D2E4              shl ah,cl
00004867  D2ED              shr ch,cl
00004869  0AE5              or ah,ch
0000486B  8ADC              mov bl,ah
0000486D  8A3EE94F          mov bh,[0x4fe9]
00004871  B90100            mov cx,0x1
00004874  B409              mov ah,0x9
00004876  CD10              int 0x10
00004878  C3                ret
00004879  8A260850          mov ah,[0x5008]
0000487D  88260A50          mov [0x500a],ah
00004881  E858FF            call 0x47dc
00004884  80FC48            cmp ah,0x48
00004887  7524              jnz 0x48ad
00004889  8A260850          mov ah,[0x5008]
0000488D  3A260A50          cmp ah,[0x500a]
00004891  74EE              jz 0x4881
00004893  FE0E0A50          dec byte [0x500a]
00004897  E8C3FF            call 0x485d
0000489A  E898FE            call 0x4735
0000489D  FECE              dec dh
0000489F  E8A9FE            call 0x474b
000048A2  E8B8FF            call 0x485d
000048A5  BE7052            mov si,0x5270
000048A8  E84AFF            call 0x47f5
000048AB  EBD4              jmp short 0x4881
000048AD  80FC50            cmp ah,0x50
000048B0  7524              jnz 0x48d6
000048B2  8A260950          mov ah,[0x5009]
000048B6  3A260A50          cmp ah,[0x500a]
000048BA  74C5              jz 0x4881
000048BC  FE060A50          inc byte [0x500a]
000048C0  E89AFF            call 0x485d
000048C3  E86FFE            call 0x4735
000048C6  FEC6              inc dh
000048C8  E880FE            call 0x474b
000048CB  E88FFF            call 0x485d
000048CE  BE7052            mov si,0x5270
000048D1  E821FF            call 0x47f5
000048D4  EBAB              jmp short 0x4881
000048D6  80FC4E            cmp ah,0x4e
000048D9  740B              jz 0x48e6
000048DB  BE4852            mov si,0x5248
000048DE  E814FF            call 0x47f5
000048E1  E831FF            call 0x4815
000048E4  EB9B              jmp short 0x4881
000048E6  E874FF            call 0x485d
000048E9  BE7052            mov si,0x5270
000048EC  E806FF            call 0x47f5
000048EF  C3                ret
000048F0  CF                iret
000048F1  55                push bp
000048F2  56                push si
000048F3  50                push ax
000048F4  53                push bx
000048F5  51                push cx
000048F6  52                push dx
000048F7  57                push di
000048F8  1E                push ds
000048F9  0E                push cs
000048FA  1F                pop ds
000048FB  B42C              mov ah,0x2c
000048FD  CD21              int 0x21
000048FF  3A360B50          cmp dh,[0x500b]
00004903  7503              jnz 0x4908
00004905  EB78              jmp short 0x497f
00004907  90                nop
00004908  88360B50          mov [0x500b],dh
0000490C  32E4              xor ah,ah
0000490E  8AC5              mov al,ch
00004910  B30A              mov bl,0xa
00004912  F6F3              div bl
00004914  053030            add ax,0x3030
00004917  A38949            mov [0x4989],ax
0000491A  32E4              xor ah,ah
0000491C  8AC1              mov al,cl
0000491E  F6F3              div bl
00004920  053030            add ax,0x3030
00004923  A38C49            mov [0x498c],ax
00004926  32E4              xor ah,ah
00004928  8AC6              mov al,dh
0000492A  F6F3              div bl
0000492C  053030            add ax,0x3030
0000492F  A38F49            mov [0x498f],ax
00004932  B42A              mov ah,0x2a
00004934  CD21              int 0x21
00004936  32E4              xor ah,ah
00004938  8AC6              mov al,dh
0000493A  F6F3              div bl
0000493C  053030            add ax,0x3030
0000493F  A39649            mov [0x4996],ax
00004942  32E4              xor ah,ah
00004944  8AC2              mov al,dl
00004946  F6F3              div bl
00004948  053030            add ax,0x3030
0000494B  A39949            mov [0x4999],ax
0000494E  81E96C07          sub cx,0x76c
00004952  83F964            cmp cx,byte +0x64
00004955  7C03              jl 0x495a
00004957  83E964            sub cx,byte +0x64
0000495A  32E4              xor ah,ah
0000495C  8AC1              mov al,cl
0000495E  F6F3              div bl
00004960  053030            add ax,0x3030
00004963  A39C49            mov [0x499c],ax
00004966  E8CCFD            call 0x4735
00004969  52                push dx
0000496A  33D2              xor dx,dx
0000496C  E8DCFD            call 0x474b
0000496F  A0EC4F            mov al,[0x4fec]
00004972  BF8849            mov di,0x4988
00004975  E8DCFD            call 0x4754
00004978  A2EC4F            mov [0x4fec],al
0000497B  5A                pop dx
0000497C  E8CCFD            call 0x474b
0000497F  1F                pop ds
00004980  5F                pop di
00004981  5A                pop dx
00004982  59                pop cx
00004983  5B                pop bx
00004984  58                pop ax
00004985  5E                pop si
00004986  5D                pop bp
00004987  CF                iret
00004988  0E                push cs
00004989  3030              xor [bx+si],dh
0000498B  3A30              cmp dh,[bx+si]
0000498D  303A              xor [bp+si],bh
0000498F  3030              xor [bx+si],dh
00004991  2020              and [bx+si],ah
00004993  2020              and [bx+si],ah
00004995  2030              and [bx+si],dh
00004997  302D              xor [di],ch
00004999  3030              xor [bx+si],dh
0000499B  2D3030            sub ax,0x3030
0000499E  0005              add [di],al
000049A0  2020              and [bx+si],ah
000049A2  2020              and [bx+si],ah
000049A4  2020              and [bx+si],ah
000049A6  2020              and [bx+si],ah
000049A8  2020              and [bx+si],ah
000049AA  2020              and [bx+si],ah
000049AC  2020              and [bx+si],ah
000049AE  2020              and [bx+si],ah
000049B0  2020              and [bx+si],ah
000049B2  2020              and [bx+si],ah
000049B4  2020              and [bx+si],ah
000049B6  2020              and [bx+si],ah
000049B8  240D              and al,0xd
000049BA  204C45            and [si+0x45],cl
000049BD  41                inc cx
000049BE  44                inc sp
000049BF  49                dec cx
000049C0  4E                dec si
000049C1  47                inc di
000049C2  204544            and [di+0x44],al
000049C5  47                inc di
000049C6  45                inc bp
000049C7  204449            and [si+0x49],al
000049CA  41                inc cx
000049CB  47                inc di
000049CC  4E                dec si
000049CD  4F                dec di
000049CE  53                push bx
000049CF  54                push sp
000049D0  49                dec cx
000049D1  43                inc bx
000049D2  53                push bx
000049D3  205052            and [bx+si+0x52],dl
000049D6  4F                dec di
000049D7  47                inc di
000049D8  52                push dx
000049D9  41                inc cx
000049DA  4D                dec bp
000049DB  2405              and al,0x5
000049DD  2020              and [bx+si],ah
000049DF  2020              and [bx+si],ah
000049E1  2020              and [bx+si],ah
000049E3  2020              and [bx+si],ah
000049E5  2020              and [bx+si],ah
000049E7  56                push si
000049E8  45                inc bp
000049E9  52                push dx
000049EA  53                push bx
000049EB  49                dec cx
000049EC  4F                dec di
000049ED  4E                dec si
000049EE  2034              and [si],dh
000049F0  2E32440D          xor al,[cs:si+0xd]
000049F4  0005              add [di],al
000049F6  C4                db 0xc4
000049F7  C4                db 0xc4
000049F8  C4                db 0xc4
000049F9  C4                db 0xc4
000049FA  C4                db 0xc4
000049FB  C4                db 0xc4
000049FC  C4                db 0xc4
000049FD  C4                db 0xc4
000049FE  C4                db 0xc4
000049FF  C4                db 0xc4
00004A00  C4                db 0xc4
00004A01  C4                db 0xc4
00004A02  C4                db 0xc4
00004A03  C4                db 0xc4
00004A04  C4                db 0xc4
00004A05  C4                db 0xc4
00004A06  C4                db 0xc4
00004A07  C4                db 0xc4
00004A08  C4                db 0xc4
00004A09  C4                db 0xc4
00004A0A  C4                db 0xc4
00004A0B  C4                db 0xc4
00004A0C  C4                db 0xc4
00004A0D  C4                db 0xc4
00004A0E  C4                db 0xc4
00004A0F  C4                db 0xc4
00004A10  C4                db 0xc4
00004A11  C4                db 0xc4
00004A12  C4                db 0xc4
00004A13  C4                db 0xc4
00004A14  C4                db 0xc4
00004A15  C4                db 0xc4
00004A16  C4                db 0xc4
00004A17  C4                db 0xc4
00004A18  C4                db 0xc4
00004A19  C4                db 0xc4
00004A1A  C4                db 0xc4
00004A1B  C4                db 0xc4
00004A1C  C4                db 0xc4
00004A1D  C4                db 0xc4
00004A1E  C4                db 0xc4
00004A1F  C4                db 0xc4
00004A20  C4                db 0xc4
00004A21  C4                db 0xc4
00004A22  C4                db 0xc4
00004A23  C4                db 0xc4
00004A24  C4                db 0xc4
00004A25  C4                db 0xc4
00004A26  C4                db 0xc4
00004A27  C4                db 0xc4
00004A28  C4                db 0xc4
00004A29  C4                db 0xc4
00004A2A  C4                db 0xc4
00004A2B  C4                db 0xc4
00004A2C  C4                db 0xc4
00004A2D  C4                db 0xc4
00004A2E  C4                db 0xc4
00004A2F  C4                db 0xc4
00004A30  C4                db 0xc4
00004A31  C4                db 0xc4
00004A32  C4                db 0xc4
00004A33  C4                db 0xc4
00004A34  C4                db 0xc4
00004A35  C4                db 0xc4
00004A36  C4                db 0xc4
00004A37  C4                db 0xc4
00004A38  C4                db 0xc4
00004A39  C4                db 0xc4
00004A3A  C4                db 0xc4
00004A3B  C4                db 0xc4
00004A3C  C4                db 0xc4
00004A3D  C4                db 0xc4
00004A3E  C4                db 0xc4
00004A3F  C4                db 0xc4
00004A40  C4                db 0xc4
00004A41  C4                db 0xc4
00004A42  C4                db 0xc4
00004A43  C4                db 0xc4
00004A44  C4                db 0xc4
00004A45  C400              les ax,[bx+si]
00004A47  0C20              or al,0x20
00004A49  2020              and [bx+si],ah
00004A4B  2020              and [bx+si],ah
00004A4D  2020              and [bx+si],ah
00004A4F  2020              and [bx+si],ah
00004A51  2020              and [bx+si],ah
00004A53  2020              and [bx+si],ah
00004A55  2020              and [bx+si],ah
00004A57  2020              and [bx+si],ah
00004A59  2020              and [bx+si],ah
00004A5B  2020              and [bx+si],ah
00004A5D  2020              and [bx+si],ah
00004A5F  2020              and [bx+si],ah
00004A61  2020              and [bx+si],ah
00004A63  2020              and [bx+si],ah
00004A65  2020              and [bx+si],ah
00004A67  2020              and [bx+si],ah
00004A69  2020              and [bx+si],ah
00004A6B  2020              and [bx+si],ah
00004A6D  2020              and [bx+si],ah
00004A6F  2020              and [bx+si],ah
00004A71  2020              and [bx+si],ah
00004A73  2020              and [bx+si],ah
00004A75  2020              and [bx+si],ah
00004A77  2020              and [bx+si],ah
00004A79  2020              and [bx+si],ah
00004A7B  2020              and [bx+si],ah
00004A7D  2020              and [bx+si],ah
00004A7F  2020              and [bx+si],ah
00004A81  2020              and [bx+si],ah
00004A83  2020              and [bx+si],ah
00004A85  2020              and [bx+si],ah
00004A87  2020              and [bx+si],ah
00004A89  2020              and [bx+si],ah
00004A8B  2020              and [bx+si],ah
00004A8D  2020              and [bx+si],ah
00004A8F  2020              and [bx+si],ah
00004A91  2020              and [bx+si],ah
00004A93  2020              and [bx+si],ah
00004A95  2020              and [bx+si],ah
00004A97  2000              and [bx+si],al
00004A99  0320              add sp,[bx+si]
00004A9B  2020              and [bx+si],ah
00004A9D  2020              and [bx+si],ah
00004A9F  204946            and [bx+di+0x46],cl
00004AA2  205448            and [si+0x48],dl
00004AA5  45                inc bp
00004AA6  204C49            and [si+0x49],cl
00004AA9  53                push bx
00004AAA  54                push sp
00004AAB  204F46            and [bx+0x46],cl
00004AAE  20494E            and [bx+di+0x4e],cl
00004AB1  53                push bx
00004AB2  54                push sp
00004AB3  41                inc cx
00004AB4  4C                dec sp
00004AB5  4C                dec sp
00004AB6  45                inc bp
00004AB7  44                inc sp
00004AB8  204841            and [bx+si+0x41],cl
00004ABB  52                push dx
00004ABC  44                inc sp
00004ABD  57                push di
00004ABE  41                inc cx
00004ABF  52                push dx
00004AC0  45                inc bp
00004AC1  204953            and [bx+di+0x53],cl
00004AC4  20434F            and [bp+di+0x4f],al
00004AC7  52                push dx
00004AC8  52                push dx
00004AC9  45                inc bp
00004ACA  43                inc bx
00004ACB  54                push sp
00004ACC  204849            and [bx+si+0x49],cl
00004ACF  54                push sp
00004AD0  205448            and [si+0x48],dl
00004AD3  45                inc bp
00004AD4  204558            and [di+0x58],al
00004AD7  45                inc bp
00004AD8  43                inc bx
00004AD9  55                push bp
00004ADA  54                push sp
00004ADB  45                inc bp
00004ADC  2028              and [bx+si],ch
00004ADE  2B29              sub bp,[bx+di]
00004AE0  204B45            and [bp+di+0x45],cl
00004AE3  59                pop cx
00004AE4  0D2020            or ax,0x2020
00004AE7  2020              and [bx+si],ah
00004AE9  2020              and [bx+si],ah
00004AEB  2020              and [bx+si],ah
00004AED  2020              and [bx+si],ah
00004AEF  2020              and [bx+si],ah
00004AF1  2020              and [bx+si],ah
00004AF3  2020              and [bx+si],ah
00004AF5  2020              and [bx+si],ah
00004AF7  2020              and [bx+si],ah
00004AF9  2020              and [bx+si],ah
00004AFB  4F                dec di
00004AFC  54                push sp
00004AFD  48                dec ax
00004AFE  45                inc bp
00004AFF  52                push dx
00004B00  57                push di
00004B01  49                dec cx
00004B02  53                push bx
00004B03  45                inc bp
00004B04  204849            and [bx+si+0x49],cl
00004B07  54                push sp
00004B08  205448            and [si+0x48],dl
00004B0B  45                inc bp
00004B0C  204553            and [di+0x53],al
00004B0F  43                inc bx
00004B10  41                inc cx
00004B11  50                push ax
00004B12  45                inc bp
00004B13  204B45            and [bp+di+0x45],cl
00004B16  59                pop cx
00004B17  20544F            and [si+0x4f],dl
00004B1A  204558            and [di+0x58],al
00004B1D  49                dec cx
00004B1E  54                push sp
00004B1F  0D0007            or ax,0x700
00004B22  2020              and [bx+si],ah
00004B24  2020              and [bx+si],ah
00004B26  2020              and [bx+si],ah
00004B28  2020              and [bx+si],ah
00004B2A  2020              and [bx+si],ah
00004B2C  2020              and [bx+si],ah
00004B2E  2020              and [bx+si],ah
00004B30  2020              and [bx+si],ah
00004B32  205448            and [si+0x48],dl
00004B35  45                inc bp
00004B36  20494E            and [bx+di+0x4e],cl
00004B39  53                push bx
00004B3A  54                push sp
00004B3B  41                inc cx
00004B3C  4C                dec sp
00004B3D  4C                dec sp
00004B3E  45                inc bp
00004B3F  44                inc sp
00004B40  204841            and [bx+si+0x41],cl
00004B43  52                push dx
00004B44  44                inc sp
00004B45  57                push di
00004B46  41                inc cx
00004B47  52                push dx
00004B48  45                inc bp
00004B49  20494E            and [bx+di+0x4e],cl
00004B4C  43                inc bx
00004B4D  4C                dec sp
00004B4E  55                push bp
00004B4F  44                inc sp
00004B50  45                inc bp
00004B51  53                push bx
00004B52  205448            and [si+0x48],dl
00004B55  45                inc bp
00004B56  20464F            and [bp+0x4f],al
00004B59  4C                dec sp
00004B5A  4C                dec sp
00004B5B  4F                dec di
00004B5C  57                push di
00004B5D  49                dec cx
00004B5E  4E                dec si
00004B5F  47                inc di
00004B60  0D0D00            or ax,0xd
00004B63  07                pop es
00004B64  2020              and [bx+si],ah
00004B66  2020              and [bx+si],ah
00004B68  2020              and [bx+si],ah
00004B6A  2020              and [bx+si],ah
00004B6C  2020              and [bx+si],ah
00004B6E  2020              and [bx+si],ah
00004B70  2020              and [bx+si],ah
00004B72  2020              and [bx+si],ah
00004B74  2020              and [bx+si],ah
00004B76  2020              and [bx+si],ah
00004B78  2020              and [bx+si],ah
00004B7A  2020              and [bx+si],ah
00004B7C  2020              and [bx+si],ah
00004B7E  2031              and [bx+di],dh
00004B80  204B65            and [bp+di+0x65],cl
00004B83  7962              jns 0x4be7
00004B85  6F                outsw
00004B86  61                popa
00004B87  7264              jc 0x4bed
00004B89  0D0007            or ax,0x700
00004B8C  2020              and [bx+si],ah
00004B8E  2020              and [bx+si],ah
00004B90  2020              and [bx+si],ah
00004B92  2020              and [bx+si],ah
00004B94  2020              and [bx+si],ah
00004B96  2020              and [bx+si],ah
00004B98  2020              and [bx+si],ah
00004B9A  2020              and [bx+si],ah
00004B9C  2020              and [bx+si],ah
00004B9E  2020              and [bx+si],ah
00004BA0  2020              and [bx+si],ah
00004BA2  2020              and [bx+si],ah
00004BA4  2020              and [bx+si],ah
00004BA6  2031              and [bx+di],dh
00004BA8  205469            and [si+0x69],dl
00004BAB  6D                insw
00004BAC  65206F66          and [gs:bx+0x66],ch
00004BB0  204461            and [si+0x61],al
00004BB3  7920              jns 0x4bd5
00004BB5  43                inc bx
00004BB6  6C                insb
00004BB7  6F                outsw
00004BB8  636B0D            arpl [bp+di+0xd],bp
00004BBB  0007              add [bx],al
00004BBD  2020              and [bx+si],ah
00004BBF  2020              and [bx+si],ah
00004BC1  2020              and [bx+si],ah
00004BC3  2020              and [bx+si],ah
00004BC5  2020              and [bx+si],ah
00004BC7  2020              and [bx+si],ah
00004BC9  2020              and [bx+si],ah
00004BCB  2020              and [bx+si],ah
00004BCD  2020              and [bx+si],ah
00004BCF  2020              and [bx+si],ah
00004BD1  2020              and [bx+si],ah
00004BD3  2020              and [bx+si],ah
00004BD5  2020              and [bx+si],ah
00004BD7  2030              and [bx+si],dh
00004BD9  3030              xor [bx+si],dh
00004BDB  204B62            and [bp+di+0x62],cl
00004BDE  7974              jns 0x4c54
00004BE0  657320            gs jnc 0x4c03
00004BE3  53                push bx
00004BE4  7973              jns 0x4c59
00004BE6  7465              jz 0x4c4d
00004BE8  6D                insw
00004BE9  204D65            and [di+0x65],cl
00004BEC  6D                insw
00004BED  6F                outsw
00004BEE  7279              jc 0x4c69
00004BF0  200D              and [di],cl
00004BF2  0007              add [bx],al
00004BF4  2020              and [bx+si],ah
00004BF6  2020              and [bx+si],ah
00004BF8  2020              and [bx+si],ah
00004BFA  2020              and [bx+si],ah
00004BFC  2020              and [bx+si],ah
00004BFE  2020              and [bx+si],ah
00004C00  2020              and [bx+si],ah
00004C02  2020              and [bx+si],ah
00004C04  2020              and [bx+si],ah
00004C06  2020              and [bx+si],ah
00004C08  2020              and [bx+si],ah
00004C0A  2020              and [bx+si],ah
00004C0C  2020              and [bx+si],ah
00004C0E  2031              and [bx+di],dh
00004C10  204772            and [bx+0x72],al
00004C13  61                popa
00004C14  7068              jo 0x4c7e
00004C16  6963732050        imul sp,[bp+di+0x73],word 0x5020
00004C1B  6F                outsw
00004C1C  7274              jc 0x4c92
00004C1E  20696E            and [bx+di+0x6e],ch
00004C21  204D6F            and [di+0x6f],cl
00004C24  6E                outsb
00004C25  6F                outsw
00004C26  636872            arpl [bx+si+0x72],bp
00004C29  6F                outsw
00004C2A  6D                insw
00004C2B  65204D6F          and [gs:di+0x6f],cl
00004C2F  64650D0007        gs or ax,0x700
00004C34  2020              and [bx+si],ah
00004C36  2020              and [bx+si],ah
00004C38  2020              and [bx+si],ah
00004C3A  2020              and [bx+si],ah
00004C3C  2020              and [bx+si],ah
00004C3E  2020              and [bx+si],ah
00004C40  2020              and [bx+si],ah
00004C42  2020              and [bx+si],ah
00004C44  2020              and [bx+si],ah
00004C46  2020              and [bx+si],ah
00004C48  2020              and [bx+si],ah
00004C4A  2020              and [bx+si],ah
00004C4C  2020              and [bx+si],ah
00004C4E  2031              and [bx+di],dh
00004C50  204772            and [bx+0x72],al
00004C53  61                popa
00004C54  7068              jo 0x4cbe
00004C56  6963732050        imul sp,[bp+di+0x73],word 0x5020
00004C5B  6F                outsw
00004C5C  7274              jc 0x4cd2
00004C5E  20696E            and [bx+di+0x6e],ch
00004C61  20436F            and [bp+di+0x6f],al
00004C64  6C                insb
00004C65  6F                outsw
00004C66  7220              jc 0x4c88
00004C68  4D                dec bp
00004C69  6F                outsw
00004C6A  64650D0007        gs or ax,0x700
00004C6F  2020              and [bx+si],ah
00004C71  2020              and [bx+si],ah
00004C73  2020              and [bx+si],ah
00004C75  2020              and [bx+si],ah
00004C77  2020              and [bx+si],ah
00004C79  2020              and [bx+si],ah
00004C7B  2020              and [bx+si],ah
00004C7D  2020              and [bx+si],ah
00004C7F  2020              and [bx+si],ah
00004C81  2020              and [bx+si],ah
00004C83  2020              and [bx+si],ah
00004C85  2020              and [bx+si],ah
00004C87  2020              and [bx+si],ah
00004C89  2030              and [bx+si],dh
00004C8B  20466C            and [bp+0x6c],al
00004C8E  6F                outsw
00004C8F  7070              jo 0x4d01
00004C91  7920              jns 0x4cb3
00004C93  44                inc sp
00004C94  69736B2044        imul si,[bp+di+0x6b],word 0x4420
00004C99  7269              jc 0x4d04
00004C9B  7665              jna 0x4d02
00004C9D  287329            sub [bp+di+0x29],dh
00004CA0  0D0007            or ax,0x700
00004CA3  2020              and [bx+si],ah
00004CA5  2020              and [bx+si],ah
00004CA7  2020              and [bx+si],ah
00004CA9  2020              and [bx+si],ah
00004CAB  2020              and [bx+si],ah
00004CAD  2020              and [bx+si],ah
00004CAF  2020              and [bx+si],ah
00004CB1  2020              and [bx+si],ah
00004CB3  2020              and [bx+si],ah
00004CB5  2020              and [bx+si],ah
00004CB7  2020              and [bx+si],ah
00004CB9  2020              and [bx+si],ah
00004CBB  2020              and [bx+si],ah
00004CBD  2030              and [bx+si],dh
00004CBF  204669            and [bp+0x69],al
00004CC2  7865              js 0x4d29
00004CC4  64204469          and [fs:si+0x69],al
00004CC8  736B              jnc 0x4d35
00004CCA  20556E            and [di+0x6e],dl
00004CCD  6974287329        imul si,[si+0x28],word 0x2973
00004CD2  0D0007            or ax,0x700
00004CD5  2020              and [bx+si],ah
00004CD7  2020              and [bx+si],ah
00004CD9  2020              and [bx+si],ah
00004CDB  2020              and [bx+si],ah
00004CDD  2020              and [bx+si],ah
00004CDF  2020              and [bx+si],ah
00004CE1  2020              and [bx+si],ah
00004CE3  2020              and [bx+si],ah
00004CE5  2020              and [bx+si],ah
00004CE7  2020              and [bx+si],ah
00004CE9  2020              and [bx+si],ah
00004CEB  2020              and [bx+si],ah
00004CED  2020              and [bx+si],ah
00004CEF  2030              and [bx+si],dh
00004CF1  205061            and [bx+si+0x61],dl
00004CF4  7261              jc 0x4d57
00004CF6  6C                insb
00004CF7  6C                insb
00004CF8  656C              gs insb
00004CFA  205072            and [bx+si+0x72],dl
00004CFD  696E746572        imul bp,[bp+0x74],word 0x7265
00004D02  20506F            and [bx+si+0x6f],dl
00004D05  7274              jc 0x4d7b
00004D07  287329            sub [bp+di+0x29],dh
00004D0A  0D0007            or ax,0x700
00004D0D  2020              and [bx+si],ah
00004D0F  2020              and [bx+si],ah
00004D11  2020              and [bx+si],ah
00004D13  2020              and [bx+si],ah
00004D15  2020              and [bx+si],ah
00004D17  2020              and [bx+si],ah
00004D19  2020              and [bx+si],ah
00004D1B  2020              and [bx+si],ah
00004D1D  2020              and [bx+si],ah
00004D1F  2020              and [bx+si],ah
00004D21  2020              and [bx+si],ah
00004D23  2020              and [bx+si],ah
00004D25  2020              and [bx+si],ah
00004D27  2030              and [bx+si],dh
00004D29  205365            and [bp+di+0x65],dl
00004D2C  7269              jc 0x4d97
00004D2E  61                popa
00004D2F  6C                insb
00004D30  20436F            and [bp+di+0x6f],al
00004D33  6D                insw
00004D34  6D                insw
00004D35  756E              jnz 0x4da5
00004D37  6963617469        imul sp,[bp+di+0x61],word 0x6974
00004D3C  6F                outsw
00004D3D  6E                outsb
00004D3E  7320              jnc 0x4d60
00004D40  50                push ax
00004D41  6F                outsw
00004D42  7274              jc 0x4db8
00004D44  287329            sub [bp+di+0x29],dh
00004D47  0D0007            or ax,0x700
00004D4A  2020              and [bx+si],ah
00004D4C  2020              and [bx+si],ah
00004D4E  2020              and [bx+si],ah
00004D50  2020              and [bx+si],ah
00004D52  2020              and [bx+si],ah
00004D54  2020              and [bx+si],ah
00004D56  2020              and [bx+si],ah
00004D58  2020              and [bx+si],ah
00004D5A  2020              and [bx+si],ah
00004D5C  2020              and [bx+si],ah
00004D5E  2020              and [bx+si],ah
00004D60  2020              and [bx+si],ah
00004D62  2020              and [bx+si],ah
00004D64  204E75            and [bp+0x75],cl
00004D67  6D                insw
00004D68  657269            gs jc 0x4dd4
00004D6B  63616C            arpl [bx+di+0x6c],sp
00004D6E  204461            and [si+0x61],al
00004D71  7461              jz 0x4dd4
00004D73  205072            and [bx+si+0x72],dl
00004D76  6F                outsw
00004D77  636573            arpl [di+0x73],sp
00004D7A  736F              jnc 0x4deb
00004D7C  7220              jc 0x4d9e
00004D7E  2838              sub [bx+si],bh
00004D80  3038              xor [bx+si],bh
00004D82  37                aaa
00004D83  290D              sub [di],cx
00004D85  000E0D0D          add [0xd0d],cl
00004D89  2020              and [bx+si],ah
00004D8B  2020              and [bx+si],ah
00004D8D  2020              and [bx+si],ah
00004D8F  2020              and [bx+si],ah
00004D91  2020              and [bx+si],ah
00004D93  2020              and [bx+si],ah
00004D95  2020              and [bx+si],ah
00004D97  2020              and [bx+si],ah
00004D99  2020              and [bx+si],ah
00004D9B  2020              and [bx+si],ah
00004D9D  2020              and [bx+si],ah
00004D9F  203C              and [si],bh
00004DA1  46                inc si
00004DA2  313E203D          xor [0x3d20],di
00004DA6  2020              and [bx+si],ah
00004DA8  54                push sp
00004DA9  4F                dec di
00004DAA  44                inc sp
00004DAB  20436C            and [bp+di+0x6c],al
00004DAE  6F                outsw
00004DAF  636B0D            arpl [bp+di+0xd],bp
00004DB2  2020              and [bx+si],ah
00004DB4  2020              and [bx+si],ah
00004DB6  2020              and [bx+si],ah
00004DB8  2020              and [bx+si],ah
00004DBA  2020              and [bx+si],ah
00004DBC  2020              and [bx+si],ah
00004DBE  2020              and [bx+si],ah
00004DC0  2020              and [bx+si],ah
00004DC2  2020              and [bx+si],ah
00004DC4  2020              and [bx+si],ah
00004DC6  2020              and [bx+si],ah
00004DC8  203C              and [si],bh
00004DCA  46                inc si
00004DCB  323E203D          xor bh,[0x3d20]
00004DCF  2020              and [bx+si],ah
00004DD1  4B                dec bx
00004DD2  657962            gs jns 0x4e37
00004DD5  6F                outsw
00004DD6  61                popa
00004DD7  7264              jc 0x4e3d
00004DD9  0D2020            or ax,0x2020
00004DDC  2020              and [bx+si],ah
00004DDE  2020              and [bx+si],ah
00004DE0  2020              and [bx+si],ah
00004DE2  2020              and [bx+si],ah
00004DE4  2020              and [bx+si],ah
00004DE6  2020              and [bx+si],ah
00004DE8  2020              and [bx+si],ah
00004DEA  2020              and [bx+si],ah
00004DEC  2020              and [bx+si],ah
00004DEE  2020              and [bx+si],ah
00004DF0  203C              and [si],bh
00004DF2  46                inc si
00004DF3  333E203D          xor di,[0x3d20]
00004DF7  2020              and [bx+si],ah
00004DF9  50                push ax
00004DFA  7269              jc 0x4e65
00004DFC  6E                outsb
00004DFD  7465              jz 0x4e64
00004DFF  720D              jc 0x4e0e
00004E01  2020              and [bx+si],ah
00004E03  2020              and [bx+si],ah
00004E05  2020              and [bx+si],ah
00004E07  2020              and [bx+si],ah
00004E09  2020              and [bx+si],ah
00004E0B  2020              and [bx+si],ah
00004E0D  2020              and [bx+si],ah
00004E0F  2020              and [bx+si],ah
00004E11  2020              and [bx+si],ah
00004E13  2020              and [bx+si],ah
00004E15  2020              and [bx+si],ah
00004E17  203C              and [si],bh
00004E19  46                inc si
00004E1A  343E              xor al,0x3e
00004E1C  203D              and [di],bh
00004E1E  2020              and [bx+si],ah
00004E20  43                inc bx
00004E21  6F                outsw
00004E22  6D                insw
00004E23  6D                insw
00004E24  756E              jnz 0x4e94
00004E26  6963617469        imul sp,[bp+di+0x61],word 0x6974
00004E2B  6F                outsw
00004E2C  6E                outsb
00004E2D  7320              jnc 0x4e4f
00004E2F  43                inc bx
00004E30  686970            push word 0x7069
00004E33  287329            sub [bp+di+0x29],dh
00004E36  0D2020            or ax,0x2020
00004E39  2020              and [bx+si],ah
00004E3B  2020              and [bx+si],ah
00004E3D  2020              and [bx+si],ah
00004E3F  2020              and [bx+si],ah
00004E41  2020              and [bx+si],ah
00004E43  2020              and [bx+si],ah
00004E45  2020              and [bx+si],ah
00004E47  2020              and [bx+si],ah
00004E49  2020              and [bx+si],ah
00004E4B  2020              and [bx+si],ah
00004E4D  203C              and [si],bh
00004E4F  46                inc si
00004E50  353E20            xor ax,0x203e
00004E53  3D2020            cmp ax,0x2020
00004E56  4D                dec bp
00004E57  6F                outsw
00004E58  6E                outsb
00004E59  69746F7228        imul si,[si+0x6f],word 0x2872
00004E5E  7329              jnc 0x4e89
00004E60  0D2020            or ax,0x2020
00004E63  2020              and [bx+si],ah
00004E65  2020              and [bx+si],ah
00004E67  2020              and [bx+si],ah
00004E69  2020              and [bx+si],ah
00004E6B  2020              and [bx+si],ah
00004E6D  2020              and [bx+si],ah
00004E6F  2020              and [bx+si],ah
00004E71  2020              and [bx+si],ah
00004E73  2020              and [bx+si],ah
00004E75  2020              and [bx+si],ah
00004E77  203C              and [si],bh
00004E79  46                inc si
00004E7A  363E203D          and [ds:di],bh
00004E7E  2020              and [bx+si],ah
00004E80  4D                dec bp
00004E81  656D              gs insw
00004E83  6F                outsw
00004E84  7279              jc 0x4eff
00004E86  0D2020            or ax,0x2020
00004E89  2020              and [bx+si],ah
00004E8B  2020              and [bx+si],ah
00004E8D  2020              and [bx+si],ah
00004E8F  2020              and [bx+si],ah
00004E91  2020              and [bx+si],ah
00004E93  2020              and [bx+si],ah
00004E95  2020              and [bx+si],ah
00004E97  2020              and [bx+si],ah
00004E99  2020              and [bx+si],ah
00004E9B  2020              and [bx+si],ah
00004E9D  203C              and [si],bh
00004E9F  46                inc si
00004EA0  37                aaa
00004EA1  3E203D            and [ds:di],bh
00004EA4  2020              and [bx+si],ah
00004EA6  46                inc si
00004EA7  6C                insb
00004EA8  6F                outsw
00004EA9  7070              jo 0x4f1b
00004EAB  7920              jns 0x4ecd
00004EAD  44                inc sp
00004EAE  69736B2044        imul si,[bp+di+0x6b],word 0x4420
00004EB3  7269              jc 0x4f1e
00004EB5  7665              jna 0x4f1c
00004EB7  287329            sub [bp+di+0x29],dh
00004EBA  0D2020            or ax,0x2020
00004EBD  2020              and [bx+si],ah
00004EBF  2020              and [bx+si],ah
00004EC1  2020              and [bx+si],ah
00004EC3  2020              and [bx+si],ah
00004EC5  2020              and [bx+si],ah
00004EC7  2020              and [bx+si],ah
00004EC9  2020              and [bx+si],ah
00004ECB  2020              and [bx+si],ah
00004ECD  2020              and [bx+si],ah
00004ECF  2020              and [bx+si],ah
00004ED1  203C              and [si],bh
00004ED3  46                inc si
00004ED4  383E203D          cmp [0x3d20],bh
00004ED8  2020              and [bx+si],ah
00004EDA  46                inc si
00004EDB  6978656420        imul di,[bx+si+0x65],word 0x2064
00004EE0  44                inc sp
00004EE1  69736B2044        imul si,[bp+di+0x6b],word 0x4420
00004EE6  7269              jc 0x4f51
00004EE8  7665              jna 0x4f4f
00004EEA  0D2020            or ax,0x2020
00004EED  2020              and [bx+si],ah
00004EEF  2020              and [bx+si],ah
00004EF1  2020              and [bx+si],ah
00004EF3  2020              and [bx+si],ah
00004EF5  2020              and [bx+si],ah
00004EF7  2020              and [bx+si],ah
00004EF9  2020              and [bx+si],ah
00004EFB  2020              and [bx+si],ah
00004EFD  2020              and [bx+si],ah
00004EFF  2020              and [bx+si],ah
00004F01  203C              and [si],bh
00004F03  46                inc si
00004F04  393E203D          cmp [0x3d20],di
00004F08  2020              and [bx+si],ah
00004F0A  54                push sp
00004F0B  657374            gs jnc 0x4f82
00004F0E  20416C            and [bx+di+0x6c],al
00004F11  6C                insb
00004F12  0D0D0D            or ax,0xd0d
00004F15  0D0D0D            or ax,0xd0d
00004F18  0D0003            or ax,0x300
00004F1B  2020              and [bx+si],ah
00004F1D  2020              and [bx+si],ah
00004F1F  2020              and [bx+si],ah
00004F21  2020              and [bx+si],ah
00004F23  2020              and [bx+si],ah
00004F25  2020              and [bx+si],ah
00004F27  2020              and [bx+si],ah
00004F29  205553            and [di+0x53],dl
00004F2C  45                inc bp
00004F2D  205448            and [si+0x48],dl
00004F30  45                inc bp
00004F31  204655            and [bp+0x55],al
00004F34  4E                dec si
00004F35  43                inc bx
00004F36  54                push sp
00004F37  49                dec cx
00004F38  4F                dec di
00004F39  4E                dec si
00004F3A  204B45            and [bp+di+0x45],cl
00004F3D  59                pop cx
00004F3E  53                push bx
00004F3F  20544F            and [si+0x4f],dl
00004F42  204558            and [di+0x58],al
00004F45  45                inc bp
00004F46  43                inc bx
00004F47  55                push bp
00004F48  54                push sp
00004F49  45                inc bp
00004F4A  205448            and [si+0x48],dl
00004F4D  45                inc bp
00004F4E  204445            and [si+0x45],al
00004F51  53                push bx
00004F52  49                dec cx
00004F53  52                push dx
00004F54  45                inc bp
00004F55  44                inc sp
00004F56  205445            and [si+0x45],dl
00004F59  53                push bx
00004F5A  54                push sp
00004F5B  0D2020            or ax,0x2020
00004F5E  2020              and [bx+si],ah
00004F60  2020              and [bx+si],ah
00004F62  2020              and [bx+si],ah
00004F64  2020              and [bx+si],ah
00004F66  2020              and [bx+si],ah
00004F68  2020              and [bx+si],ah
00004F6A  2020              and [bx+si],ah
00004F6C  2020              and [bx+si],ah
00004F6E  2020              and [bx+si],ah
00004F70  2020              and [bx+si],ah
00004F72  2020              and [bx+si],ah
00004F74  204F52            and [bx+0x52],cl
00004F77  204553            and [di+0x53],al
00004F7A  43                inc bx
00004F7B  41                inc cx
00004F7C  50                push ax
00004F7D  45                inc bp
00004F7E  204B45            and [bp+di+0x45],cl
00004F81  59                pop cx
00004F82  20544F            and [si+0x4f],dl
00004F85  205245            and [bp+si+0x45],dl
00004F88  54                push sp
00004F89  55                push bp
00004F8A  52                push dx
00004F8B  4E                dec si
00004F8C  20544F            and [si+0x4f],dl
00004F8F  20444F            and [si+0x4f],al
00004F92  53                push bx
00004F93  0D0020            or ax,0x2000
00004F96  2020              and [bx+si],ah
00004F98  2020              and [bx+si],ah
00004F9A  2020              and [bx+si],ah
00004F9C  50                push ax
00004F9D  6C                insb
00004F9E  6561              gs popa
00004FA0  7365              jnc 0x5007
00004FA2  207573            and [di+0x73],dh
00004FA5  65204655          and [gs:bp+0x55],al
00004FA9  4E                dec si
00004FAA  43                inc bx
00004FAB  54                push sp
00004FAC  49                dec cx
00004FAD  4F                dec di
00004FAE  4E                dec si
00004FAF  2020              and [bx+si],ah
00004FB1  4B                dec bx
00004FB2  45                inc bp
00004FB3  59                pop cx
00004FB4  53                push bx
00004FB5  2020              and [bx+si],ah
00004FB7  2020              and [bx+si],ah
00004FB9  2020              and [bx+si],ah
00004FBB  2020              and [bx+si],ah
00004FBD  2020              and [bx+si],ah
00004FBF  2020              and [bx+si],ah
00004FC1  54                push sp
00004FC2  686572            push word 0x7265
00004FC5  65206973          and [gs:bx+di+0x73],ch
00004FC9  206E6F            and [bp+0x6f],ch
00004FCC  207375            and [bp+di+0x75],dh
00004FCF  636820            arpl [bx+si+0x20],bp
00004FD2  706F              jo 0x5043
00004FD4  7274              jc 0x504a
00004FD6  20696E            and [bx+di+0x6e],ch
00004FD9  7374              jnc 0x504f
00004FDB  61                popa
00004FDC  6C                insb
00004FDD  6C                insb
00004FDE  65642020          and [fs:bx+si],ah
00004FE2  2020              and [bx+si],ah
00004FE4  2000              and [bx+si],al
00004FE6  0000              add [bx+si],al
00004FE8  0000              add [bx+si],al
00004FEA  0000              add [bx+si],al
00004FEC  0000              add [bx+si],al
00004FEE  0000              add [bx+si],al
00004FF0  0000              add [bx+si],al
00004FF2  0000              add [bx+si],al
00004FF4  91                xchg ax,cx
00004FF5  07                pop es
00004FF6  CD08              int 0x8
00004FF8  5D                pop bp
00004FF9  0B18              or bx,[bx+si]
00004FFB  0E                push cs
00004FFC  1C18              sbb al,0x18
00004FFE  0E                push cs
00004FFF  298A2FA9          sub [bp+si-0x56d1],cx
00005003  3B1B              cmp bx,[bp+di]
00005005  47                inc di
00005006  3447              xor al,0x47
00005008  0000              add [bx+si],al
0000500A  0000              add [bx+si],al
0000500C  0320              add sp,[bx+si]
0000500E  2020              and [bx+si],ah
00005010  2020              and [bx+si],ah
00005012  2020              and [bx+si],ah
00005014  2020              and [bx+si],ah
00005016  2020              and [bx+si],ah
00005018  2020              and [bx+si],ah
0000501A  2020              and [bx+si],ah
0000501C  2020              and [bx+si],ah
0000501E  2020              and [bx+si],ah
00005020  2020              and [bx+si],ah
00005022  204849            and [bx+si+0x49],cl
00005025  54                push sp
00005026  205448            and [si+0x48],dl
00005029  45                inc bp
0000502A  204558            and [di+0x58],al
0000502D  45                inc bp
0000502E  43                inc bx
0000502F  55                push bp
00005030  54                push sp
00005031  45                inc bp
00005032  2028              and [bx+si],ch
00005034  2B29              sub bp,[bx+di]
00005036  204B45            and [bp+di+0x45],cl
00005039  59                pop cx
0000503A  20544F            and [si+0x4f],dl
0000503D  20434F            and [bp+di+0x4f],al
00005040  4E                dec si
00005041  54                push sp
00005042  49                dec cx
00005043  4E                dec si
00005044  55                push bp
00005045  45                inc bp
00005046  0D0020            or ax,0x2000
00005049  2020              and [bx+si],ah
0000504B  2020              and [bx+si],ah
0000504D  2020              and [bx+si],ah
0000504F  2020              and [bx+si],ah
00005051  2020              and [bx+si],ah
00005053  2020              and [bx+si],ah
00005055  2020              and [bx+si],ah
00005057  2020              and [bx+si],ah
00005059  2020              and [bx+si],ah
0000505B  2020              and [bx+si],ah
0000505D  2020              and [bx+si],ah
0000505F  2020              and [bx+si],ah
00005061  2020              and [bx+si],ah
00005063  2020              and [bx+si],ah
00005065  2020              and [bx+si],ah
00005067  2020              and [bx+si],ah
00005069  2020              and [bx+si],ah
0000506B  2020              and [bx+si],ah
0000506D  2020              and [bx+si],ah
0000506F  2020              and [bx+si],ah
00005071  2020              and [bx+si],ah
00005073  2020              and [bx+si],ah
00005075  2020              and [bx+si],ah
00005077  2020              and [bx+si],ah
00005079  2020              and [bx+si],ah
0000507B  2020              and [bx+si],ah
0000507D  2020              and [bx+si],ah
0000507F  2020              and [bx+si],ah
00005081  2020              and [bx+si],ah
00005083  2020              and [bx+si],ah
00005085  2020              and [bx+si],ah
00005087  2020              and [bx+si],ah
00005089  2020              and [bx+si],ah
0000508B  2020              and [bx+si],ah
0000508D  2020              and [bx+si],ah
0000508F  2020              and [bx+si],ah
00005091  2020              and [bx+si],ah
00005093  2020              and [bx+si],ah
00005095  2020              and [bx+si],ah
00005097  2020              and [bx+si],ah
00005099  2020              and [bx+si],ah
0000509B  2020              and [bx+si],ah
0000509D  2020              and [bx+si],ah
0000509F  2020              and [bx+si],ah
000050A1  2020              and [bx+si],ah
000050A3  2020              and [bx+si],ah
000050A5  2020              and [bx+si],ah
000050A7  2020              and [bx+si],ah
000050A9  2020              and [bx+si],ah
000050AB  2020              and [bx+si],ah
000050AD  2020              and [bx+si],ah
000050AF  2020              and [bx+si],ah
000050B1  2020              and [bx+si],ah
000050B3  2020              and [bx+si],ah
000050B5  2020              and [bx+si],ah
000050B7  2020              and [bx+si],ah
000050B9  2020              and [bx+si],ah
000050BB  2020              and [bx+si],ah
000050BD  2020              and [bx+si],ah
000050BF  2020              and [bx+si],ah
000050C1  2020              and [bx+si],ah
000050C3  2020              and [bx+si],ah
000050C5  2020              and [bx+si],ah
000050C7  2020              and [bx+si],ah
000050C9  2020              and [bx+si],ah
000050CB  2020              and [bx+si],ah
000050CD  2020              and [bx+si],ah
000050CF  2020              and [bx+si],ah
000050D1  2020              and [bx+si],ah
000050D3  2020              and [bx+si],ah
000050D5  2020              and [bx+si],ah
000050D7  2020              and [bx+si],ah
000050D9  2020              and [bx+si],ah
000050DB  2020              and [bx+si],ah
000050DD  2020              and [bx+si],ah
000050DF  2020              and [bx+si],ah
000050E1  2020              and [bx+si],ah
000050E3  2020              and [bx+si],ah
000050E5  2020              and [bx+si],ah
000050E7  2020              and [bx+si],ah
000050E9  2020              and [bx+si],ah
000050EB  2020              and [bx+si],ah
000050ED  2020              and [bx+si],ah
000050EF  2020              and [bx+si],ah
000050F1  2020              and [bx+si],ah
000050F3  2020              and [bx+si],ah
000050F5  2020              and [bx+si],ah
000050F7  2020              and [bx+si],ah
000050F9  2020              and [bx+si],ah
000050FB  2020              and [bx+si],ah
000050FD  2020              and [bx+si],ah
000050FF  2020              and [bx+si],ah
00005101  2020              and [bx+si],ah
00005103  2020              and [bx+si],ah
00005105  2020              and [bx+si],ah
00005107  2020              and [bx+si],ah
00005109  2020              and [bx+si],ah
0000510B  2020              and [bx+si],ah
0000510D  2020              and [bx+si],ah
0000510F  2020              and [bx+si],ah
00005111  2020              and [bx+si],ah
00005113  2020              and [bx+si],ah
00005115  2020              and [bx+si],ah
00005117  2020              and [bx+si],ah
00005119  2020              and [bx+si],ah
0000511B  2020              and [bx+si],ah
0000511D  2020              and [bx+si],ah
0000511F  2020              and [bx+si],ah
00005121  2020              and [bx+si],ah
00005123  2020              and [bx+si],ah
00005125  2020              and [bx+si],ah
00005127  2020              and [bx+si],ah
00005129  2020              and [bx+si],ah
0000512B  2020              and [bx+si],ah
0000512D  2020              and [bx+si],ah
0000512F  2020              and [bx+si],ah
00005131  2020              and [bx+si],ah
00005133  2020              and [bx+si],ah
00005135  2020              and [bx+si],ah
00005137  2020              and [bx+si],ah
00005139  2020              and [bx+si],ah
0000513B  2020              and [bx+si],ah
0000513D  2020              and [bx+si],ah
0000513F  2020              and [bx+si],ah
00005141  2020              and [bx+si],ah
00005143  2020              and [bx+si],ah
00005145  2020              and [bx+si],ah
00005147  2020              and [bx+si],ah
00005149  2020              and [bx+si],ah
0000514B  2020              and [bx+si],ah
0000514D  2020              and [bx+si],ah
0000514F  2020              and [bx+si],ah
00005151  2020              and [bx+si],ah
00005153  2020              and [bx+si],ah
00005155  2020              and [bx+si],ah
00005157  2020              and [bx+si],ah
00005159  2020              and [bx+si],ah
0000515B  2020              and [bx+si],ah
0000515D  2020              and [bx+si],ah
0000515F  2020              and [bx+si],ah
00005161  2020              and [bx+si],ah
00005163  2020              and [bx+si],ah
00005165  2020              and [bx+si],ah
00005167  2020              and [bx+si],ah
00005169  2020              and [bx+si],ah
0000516B  2020              and [bx+si],ah
0000516D  2020              and [bx+si],ah
0000516F  2020              and [bx+si],ah
00005171  2020              and [bx+si],ah
00005173  2020              and [bx+si],ah
00005175  2020              and [bx+si],ah
00005177  2020              and [bx+si],ah
00005179  2020              and [bx+si],ah
0000517B  2020              and [bx+si],ah
0000517D  2020              and [bx+si],ah
0000517F  2020              and [bx+si],ah
00005181  2020              and [bx+si],ah
00005183  2020              and [bx+si],ah
00005185  2020              and [bx+si],ah
00005187  2020              and [bx+si],ah
00005189  2020              and [bx+si],ah
0000518B  2020              and [bx+si],ah
0000518D  2020              and [bx+si],ah
0000518F  2020              and [bx+si],ah
00005191  2020              and [bx+si],ah
00005193  2020              and [bx+si],ah
00005195  2020              and [bx+si],ah
00005197  2020              and [bx+si],ah
00005199  2020              and [bx+si],ah
0000519B  2020              and [bx+si],ah
0000519D  2020              and [bx+si],ah
0000519F  2020              and [bx+si],ah
000051A1  2020              and [bx+si],ah
000051A3  2020              and [bx+si],ah
000051A5  2020              and [bx+si],ah
000051A7  2020              and [bx+si],ah
000051A9  2020              and [bx+si],ah
000051AB  2020              and [bx+si],ah
000051AD  2020              and [bx+si],ah
000051AF  2020              and [bx+si],ah
000051B1  2020              and [bx+si],ah
000051B3  2020              and [bx+si],ah
000051B5  2020              and [bx+si],ah
000051B7  2020              and [bx+si],ah
000051B9  2020              and [bx+si],ah
000051BB  2020              and [bx+si],ah
000051BD  2020              and [bx+si],ah
000051BF  2020              and [bx+si],ah
000051C1  2020              and [bx+si],ah
000051C3  2020              and [bx+si],ah
000051C5  2020              and [bx+si],ah
000051C7  2020              and [bx+si],ah
000051C9  2020              and [bx+si],ah
000051CB  2020              and [bx+si],ah
000051CD  2020              and [bx+si],ah
000051CF  2020              and [bx+si],ah
000051D1  2020              and [bx+si],ah
000051D3  2020              and [bx+si],ah
000051D5  2020              and [bx+si],ah
000051D7  2020              and [bx+si],ah
000051D9  2020              and [bx+si],ah
000051DB  2020              and [bx+si],ah
000051DD  2020              and [bx+si],ah
000051DF  2020              and [bx+si],ah
000051E1  2020              and [bx+si],ah
000051E3  2020              and [bx+si],ah
000051E5  2020              and [bx+si],ah
000051E7  2020              and [bx+si],ah
000051E9  2020              and [bx+si],ah
000051EB  2020              and [bx+si],ah
000051ED  2020              and [bx+si],ah
000051EF  2020              and [bx+si],ah
000051F1  2020              and [bx+si],ah
000051F3  2020              and [bx+si],ah
000051F5  2020              and [bx+si],ah
000051F7  2020              and [bx+si],ah
000051F9  2020              and [bx+si],ah
000051FB  2020              and [bx+si],ah
000051FD  2020              and [bx+si],ah
000051FF  2020              and [bx+si],ah
00005201  2020              and [bx+si],ah
00005203  2020              and [bx+si],ah
00005205  2020              and [bx+si],ah
00005207  2020              and [bx+si],ah
00005209  2020              and [bx+si],ah
0000520B  2020              and [bx+si],ah
0000520D  2020              and [bx+si],ah
0000520F  2020              and [bx+si],ah
00005211  2020              and [bx+si],ah
00005213  2020              and [bx+si],ah
00005215  2020              and [bx+si],ah
00005217  2020              and [bx+si],ah
00005219  2020              and [bx+si],ah
0000521B  2020              and [bx+si],ah
0000521D  2020              and [bx+si],ah
0000521F  2020              and [bx+si],ah
00005221  2020              and [bx+si],ah
00005223  2020              and [bx+si],ah
00005225  2020              and [bx+si],ah
00005227  2020              and [bx+si],ah
00005229  2020              and [bx+si],ah
0000522B  2020              and [bx+si],ah
0000522D  2020              and [bx+si],ah
0000522F  2020              and [bx+si],ah
00005231  2020              and [bx+si],ah
00005233  2020              and [bx+si],ah
00005235  2020              and [bx+si],ah
00005237  2020              and [bx+si],ah
00005239  2020              and [bx+si],ah
0000523B  2020              and [bx+si],ah
0000523D  2020              and [bx+si],ah
0000523F  2020              and [bx+si],ah
00005241  2020              and [bx+si],ah
00005243  2020              and [bx+si],ah
00005245  2020              and [bx+si],ah
00005247  2020              and [bx+si],ah
00005249  2020              and [bx+si],ah
0000524B  2020              and [bx+si],ah
0000524D  59                pop cx
0000524E  6F                outsw
0000524F  7520              jnz 0x5271
00005251  686176            push word 0x7661
00005254  65206E6F          and [gs:bp+0x6f],ch
00005258  7420              jz 0x527a
0000525A  686974            push word 0x7469
0000525D  206120            and [bx+di+0x20],ah
00005260  7661              jna 0x52c3
00005262  6C                insb
00005263  6964206B65        imul sp,[si+0x20],word 0x656b
00005268  7921              jns 0x528b
0000526A  2120              and [bx+si],sp
0000526C  2020              and [bx+si],ah
0000526E  2020              and [bx+si],ah
00005270  2020              and [bx+si],ah
00005272  2020              and [bx+si],ah
00005274  2020              and [bx+si],ah
00005276  2020              and [bx+si],ah
00005278  2020              and [bx+si],ah
0000527A  2020              and [bx+si],ah
0000527C  2020              and [bx+si],ah
0000527E  2020              and [bx+si],ah
00005280  2020              and [bx+si],ah
00005282  2020              and [bx+si],ah
00005284  2020              and [bx+si],ah
00005286  2020              and [bx+si],ah
00005288  2020              and [bx+si],ah
0000528A  2020              and [bx+si],ah
0000528C  2020              and [bx+si],ah
0000528E  2020              and [bx+si],ah
00005290  2020              and [bx+si],ah
00005292  2020              and [bx+si],ah
00005294  2020              and [bx+si],ah
00005296  2020              and [bx+si],ah
00005298  0320              add sp,[bx+si]
0000529A  2020              and [bx+si],ah
0000529C  2020              and [bx+si],ah
0000529E  2020              and [bx+si],ah
000052A0  2020              and [bx+si],ah
000052A2  2020              and [bx+si],ah
000052A4  2020              and [bx+si],ah
000052A6  2020              and [bx+si],ah
000052A8  2020              and [bx+si],ah
000052AA  2020              and [bx+si],ah
000052AC  2020              and [bx+si],ah
000052AE  2020              and [bx+si],ah
000052B0  55                push bp
000052B1  53                push bx
000052B2  45                inc bp
000052B3  2018              and [bx+si],bl
000052B5  20414E            and [bx+di+0x4e],al
000052B8  44                inc sp
000052B9  2019              and [bx+di],bl
000052BB  204B45            and [bp+di+0x45],cl
000052BE  59                pop cx
000052BF  53                push bx
000052C0  20544F            and [si+0x4f],dl
000052C3  204D41            and [di+0x41],cl
000052C6  4B                dec bx
000052C7  45                inc bp
000052C8  205345            and [bp+di+0x45],dl
000052CB  4C                dec sp
000052CC  45                inc bp
000052CD  43                inc bx
000052CE  54                push sp
000052CF  49                dec cx
000052D0  4F                dec di
000052D1  4E                dec si
000052D2  0D2020            or ax,0x2020
000052D5  2020              and [bx+si],ah
000052D7  2020              and [bx+si],ah
000052D9  2020              and [bx+si],ah
000052DB  2020              and [bx+si],ah
000052DD  2020              and [bx+si],ah
000052DF  2020              and [bx+si],ah
000052E1  2020              and [bx+si],ah
000052E3  2020              and [bx+si],ah
000052E5  2020              and [bx+si],ah
000052E7  2020              and [bx+si],ah
000052E9  2020              and [bx+si],ah
000052EB  2020              and [bx+si],ah
000052ED  54                push sp
000052EE  48                dec ax
000052EF  45                inc bp
000052F0  4E                dec si
000052F1  204849            and [bx+si+0x49],cl
000052F4  54                push sp
000052F5  205448            and [si+0x48],dl
000052F8  45                inc bp
000052F9  204558            and [di+0x58],al
000052FC  45                inc bp
000052FD  43                inc bx
000052FE  55                push bp
000052FF  54                push sp
00005300  45                inc bp
00005301  2028              and [bx+si],ch
00005303  2B29              sub bp,[bx+di]
00005305  204B45            and [bp+di+0x45],cl
00005308  59                pop cx
00005309  0003              add [bp+di],al
0000530B  2020              and [bx+si],ah
0000530D  2020              and [bx+si],ah
0000530F  2020              and [bx+si],ah
00005311  2020              and [bx+si],ah
00005313  2020              and [bx+si],ah
00005315  2020              and [bx+si],ah
00005317  2020              and [bx+si],ah
00005319  2020              and [bx+si],ah
0000531B  2020              and [bx+si],ah
0000531D  2020              and [bx+si],ah
0000531F  2020              and [bx+si],ah
00005321  2020              and [bx+si],ah
00005323  48                dec ax
00005324  49                dec cx
00005325  54                push sp
00005326  204558            and [di+0x58],al
00005329  45                inc bp
0000532A  43                inc bx
0000532B  55                push bp
0000532C  54                push sp
0000532D  45                inc bp
0000532E  2028              and [bx+si],ch
00005330  2B29              sub bp,[bx+di]
00005332  204B45            and [bp+di+0x45],cl
00005335  59                pop cx
00005336  20544F            and [si+0x4f],dl
00005339  20434F            and [bp+di+0x4f],al
0000533C  4E                dec si
0000533D  54                push sp
0000533E  49                dec cx
0000533F  4E                dec si
00005340  55                push bp
00005341  45                inc bp
00005342  0D2020            or ax,0x2020
00005345  2020              and [bx+si],ah
00005347  2020              and [bx+si],ah
00005349  2020              and [bx+si],ah
0000534B  2020              and [bx+si],ah
0000534D  2020              and [bx+si],ah
0000534F  2020              and [bx+si],ah
00005351  2020              and [bx+si],ah
00005353  2020              and [bx+si],ah
00005355  2020              and [bx+si],ah
00005357  2020              and [bx+si],ah
00005359  2020              and [bx+si],ah
0000535B  204F52            and [bx+0x52],cl
0000535E  205553            and [di+0x53],dl
00005361  45                inc bp
00005362  205448            and [si+0x48],dl
00005365  45                inc bp
00005366  204553            and [di+0x53],al
00005369  43                inc bx
0000536A  41                inc cx
0000536B  50                push ax
0000536C  45                inc bp
0000536D  204B45            and [bp+di+0x45],cl
00005370  59                pop cx
00005371  20544F            and [si+0x4f],dl
00005374  204558            and [di+0x58],al
00005377  49                dec cx
00005378  54                push sp
00005379  005072            add [bx+si+0x72],dl
0000537C  6F                outsw
0000537D  647563            fs jnz 0x53e3
00005380  656420666F        and [fs:bp+0x6f],ah
00005385  7220              jc 0x53a7
00005387  4C                dec sp
00005388  6561              gs popa
0000538A  64696E672045      imul bp,[fs:bp+0x67],word 0x4520
00005390  646765205072      and [gs:eax+0x72],dl
00005396  6F                outsw
00005397  647563            fs jnz 0x53fd
0000539A  7473              jz 0x540f
0000539C  2C20              sub al,0x20
0000539E  4D                dec bp
0000539F  61                popa
000053A0  7920              jns 0x53c2
000053A2  312C              xor [si],bp
000053A4  2031              and [bx+di],dh
000053A6  3938              cmp [bx+si],di
000053A8  3650              ss push ax
000053AA  61                popa
000053AB  756C              jnz 0x5419
000053AD  20442E            and [si+0x2e],al
000053B0  204173            and [bx+di+0x73],al
000053B3  7365              jnc 0x541a
000053B5  6C                insb
000053B6  696E202F20        imul bp,[bp+0x20],word 0x202f
000053BB  53                push bx
000053BC  7573              jnz 0x5431
000053BE  61                popa
000053BF  6E                outsb
000053C0  204A2E            and [bp+si+0x2e],cl
000053C3  20436C            and [bp+di+0x6c],al
000053C6  61                popa
000053C7  726B              jc 0x5434
000053C9  0000              add [bx+si],al
000053CB  0000              add [bx+si],al
000053CD  0000              add [bx+si],al
000053CF  0000              add [bx+si],al
000053D1  0000              add [bx+si],al
000053D3  0000              add [bx+si],al
000053D5  0000              add [bx+si],al
000053D7  0000              add [bx+si],al
000053D9  0000              add [bx+si],al
000053DB  0000              add [bx+si],al
000053DD  0000              add [bx+si],al
000053DF  0000              add [bx+si],al
000053E1  0000              add [bx+si],al
000053E3  0000              add [bx+si],al
000053E5  0000              add [bx+si],al
000053E7  0000              add [bx+si],al
000053E9  0000              add [bx+si],al
000053EB  0000              add [bx+si],al
000053ED  0000              add [bx+si],al
000053EF  0000              add [bx+si],al
000053F1  0000              add [bx+si],al
000053F3  0000              add [bx+si],al
000053F5  0000              add [bx+si],al
000053F7  0000              add [bx+si],al
000053F9  0000              add [bx+si],al
000053FB  0000              add [bx+si],al
000053FD  0000              add [bx+si],al
000053FF  0000              add [bx+si],al
00005401  0000              add [bx+si],al
00005403  0000              add [bx+si],al
00005405  0000              add [bx+si],al
00005407  0000              add [bx+si],al
00005409  0000              add [bx+si],al
0000540B  0000              add [bx+si],al
0000540D  0000              add [bx+si],al
0000540F  0000              add [bx+si],al
00005411  0000              add [bx+si],al
00005413  0000              add [bx+si],al
00005415  0000              add [bx+si],al
00005417  0000              add [bx+si],al
00005419  0000              add [bx+si],al
0000541B  0000              add [bx+si],al
0000541D  0000              add [bx+si],al
0000541F  0000              add [bx+si],al
00005421  0000              add [bx+si],al
00005423  0000              add [bx+si],al
00005425  0000              add [bx+si],al
00005427  0000              add [bx+si],al
00005429  0000              add [bx+si],al
0000542B  0000              add [bx+si],al
0000542D  0000              add [bx+si],al
0000542F  0000              add [bx+si],al
00005431  0000              add [bx+si],al
00005433  0000              add [bx+si],al
00005435  0000              add [bx+si],al
00005437  0000              add [bx+si],al
00005439  0000              add [bx+si],al
0000543B  0000              add [bx+si],al
0000543D  0000              add [bx+si],al
0000543F  0000              add [bx+si],al
00005441  0000              add [bx+si],al
00005443  0000              add [bx+si],al
00005445  0000              add [bx+si],al
00005447  0000              add [bx+si],al
00005449  0000              add [bx+si],al
0000544B  0000              add [bx+si],al
0000544D  0000              add [bx+si],al
0000544F  0000              add [bx+si],al
00005451  0000              add [bx+si],al
00005453  0000              add [bx+si],al
00005455  0000              add [bx+si],al
00005457  0000              add [bx+si],al
00005459  0000              add [bx+si],al
0000545B  0000              add [bx+si],al
0000545D  0000              add [bx+si],al
0000545F  0000              add [bx+si],al
00005461  0000              add [bx+si],al
00005463  0000              add [bx+si],al
00005465  0000              add [bx+si],al
00005467  0000              add [bx+si],al
00005469  0000              add [bx+si],al
0000546B  0000              add [bx+si],al
0000546D  0000              add [bx+si],al
0000546F  0000              add [bx+si],al
00005471  0000              add [bx+si],al
00005473  0000              add [bx+si],al
00005475  0000              add [bx+si],al
00005477  0000              add [bx+si],al
00005479  0000              add [bx+si],al
0000547B  0000              add [bx+si],al
0000547D  0000              add [bx+si],al
0000547F  0000              add [bx+si],al
00005481  0000              add [bx+si],al
00005483  0000              add [bx+si],al
00005485  0000              add [bx+si],al
00005487  0000              add [bx+si],al
00005489  0000              add [bx+si],al
0000548B  0000              add [bx+si],al
0000548D  0000              add [bx+si],al
0000548F  0000              add [bx+si],al
00005491  0000              add [bx+si],al
00005493  0000              add [bx+si],al
00005495  0000              add [bx+si],al
00005497  0000              add [bx+si],al
00005499  0000              add [bx+si],al
0000549B  0000              add [bx+si],al
0000549D  0000              add [bx+si],al
0000549F  0000              add [bx+si],al
000054A1  0000              add [bx+si],al
000054A3  0000              add [bx+si],al
000054A5  0000              add [bx+si],al
000054A7  0000              add [bx+si],al
000054A9  0000              add [bx+si],al
000054AB  0000              add [bx+si],al
000054AD  0000              add [bx+si],al
000054AF  0000              add [bx+si],al
000054B1  0000              add [bx+si],al
000054B3  0000              add [bx+si],al
000054B5  0000              add [bx+si],al
000054B7  0000              add [bx+si],al
000054B9  0000              add [bx+si],al
000054BB  0000              add [bx+si],al
000054BD  0000              add [bx+si],al
000054BF  0000              add [bx+si],al
000054C1  0000              add [bx+si],al
000054C3  0000              add [bx+si],al
000054C5  0000              add [bx+si],al
000054C7  0000              add [bx+si],al
000054C9  0000              add [bx+si],al
000054CB  0000              add [bx+si],al
000054CD  0000              add [bx+si],al
000054CF  0000              add [bx+si],al
000054D1  0000              add [bx+si],al
000054D3  0000              add [bx+si],al
000054D5  0000              add [bx+si],al
000054D7  0000              add [bx+si],al
000054D9  0000              add [bx+si],al
000054DB  0000              add [bx+si],al
000054DD  0000              add [bx+si],al
000054DF  0000              add [bx+si],al
000054E1  0000              add [bx+si],al
000054E3  0000              add [bx+si],al
000054E5  0000              add [bx+si],al
000054E7  0000              add [bx+si],al
000054E9  0000              add [bx+si],al
000054EB  0000              add [bx+si],al
000054ED  0000              add [bx+si],al
000054EF  0000              add [bx+si],al
000054F1  0000              add [bx+si],al
000054F3  0000              add [bx+si],al
000054F5  0000              add [bx+si],al
000054F7  0000              add [bx+si],al
000054F9  0000              add [bx+si],al
000054FB  0000              add [bx+si],al
000054FD  0000              add [bx+si],al
000054FF  0000              add [bx+si],al
00005501  0000              add [bx+si],al
00005503  0000              add [bx+si],al
00005505  0000              add [bx+si],al
00005507  0000              add [bx+si],al
00005509  0000              add [bx+si],al
0000550B  0000              add [bx+si],al
0000550D  0000              add [bx+si],al
0000550F  0000              add [bx+si],al
00005511  0000              add [bx+si],al
00005513  0000              add [bx+si],al
00005515  0000              add [bx+si],al
00005517  0000              add [bx+si],al
00005519  0000              add [bx+si],al
0000551B  0000              add [bx+si],al
0000551D  0000              add [bx+si],al
0000551F  0000              add [bx+si],al
00005521  0000              add [bx+si],al
00005523  0000              add [bx+si],al
00005525  0000              add [bx+si],al
00005527  0000              add [bx+si],al
00005529  0000              add [bx+si],al
0000552B  0000              add [bx+si],al
0000552D  0000              add [bx+si],al
0000552F  0000              add [bx+si],al
00005531  0000              add [bx+si],al
00005533  0000              add [bx+si],al
00005535  0000              add [bx+si],al
00005537  0000              add [bx+si],al
00005539  0000              add [bx+si],al
0000553B  0000              add [bx+si],al
0000553D  0000              add [bx+si],al
0000553F  0000              add [bx+si],al
00005541  0000              add [bx+si],al
00005543  0000              add [bx+si],al
00005545  0000              add [bx+si],al
00005547  0000              add [bx+si],al
00005549  0000              add [bx+si],al
0000554B  0000              add [bx+si],al
0000554D  0000              add [bx+si],al
0000554F  0000              add [bx+si],al
00005551  0000              add [bx+si],al
00005553  0000              add [bx+si],al
00005555  0000              add [bx+si],al
00005557  0000              add [bx+si],al
00005559  0000              add [bx+si],al
0000555B  0000              add [bx+si],al
0000555D  0000              add [bx+si],al
0000555F  0000              add [bx+si],al
00005561  0000              add [bx+si],al
00005563  0000              add [bx+si],al
00005565  0000              add [bx+si],al
00005567  0000              add [bx+si],al
00005569  0000              add [bx+si],al
0000556B  0000              add [bx+si],al
0000556D  0000              add [bx+si],al
0000556F  0000              add [bx+si],al
00005571  0000              add [bx+si],al
00005573  0000              add [bx+si],al
00005575  0000              add [bx+si],al
00005577  0000              add [bx+si],al
00005579  0000              add [bx+si],al
0000557B  0000              add [bx+si],al
0000557D  0000              add [bx+si],al
0000557F  0000              add [bx+si],al
00005581  0000              add [bx+si],al
00005583  0000              add [bx+si],al
00005585  0000              add [bx+si],al
00005587  0000              add [bx+si],al
00005589  0000              add [bx+si],al
0000558B  0000              add [bx+si],al
0000558D  0000              add [bx+si],al
0000558F  0000              add [bx+si],al
00005591  0000              add [bx+si],al
00005593  0000              add [bx+si],al
00005595  0000              add [bx+si],al
00005597  0000              add [bx+si],al
00005599  0000              add [bx+si],al
0000559B  0000              add [bx+si],al
0000559D  0000              add [bx+si],al
0000559F  0000              add [bx+si],al
000055A1  0000              add [bx+si],al
000055A3  0000              add [bx+si],al
000055A5  0000              add [bx+si],al
000055A7  0000              add [bx+si],al
000055A9  0000              add [bx+si],al
000055AB  0000              add [bx+si],al
000055AD  0000              add [bx+si],al
000055AF  0000              add [bx+si],al
000055B1  0000              add [bx+si],al
000055B3  0000              add [bx+si],al
000055B5  0000              add [bx+si],al
000055B7  0000              add [bx+si],al
000055B9  0000              add [bx+si],al
000055BB  0000              add [bx+si],al
000055BD  0000              add [bx+si],al
000055BF  0000              add [bx+si],al
000055C1  0000              add [bx+si],al
000055C3  0000              add [bx+si],al
000055C5  0000              add [bx+si],al
000055C7  0000              add [bx+si],al
000055C9  0000              add [bx+si],al
000055CB  0000              add [bx+si],al
000055CD  0000              add [bx+si],al
000055CF  0000              add [bx+si],al
000055D1  0000              add [bx+si],al
000055D3  0000              add [bx+si],al
000055D5  0000              add [bx+si],al
000055D7  0000              add [bx+si],al
000055D9  0000              add [bx+si],al
000055DB  0000              add [bx+si],al
000055DD  0000              add [bx+si],al
000055DF  0000              add [bx+si],al
000055E1  0000              add [bx+si],al
000055E3  0000              add [bx+si],al
000055E5  0000              add [bx+si],al
000055E7  0000              add [bx+si],al
000055E9  0000              add [bx+si],al
000055EB  0000              add [bx+si],al
000055ED  0000              add [bx+si],al
000055EF  0000              add [bx+si],al
000055F1  0000              add [bx+si],al
000055F3  0000              add [bx+si],al
000055F5  0000              add [bx+si],al
000055F7  0000              add [bx+si],al
000055F9  0000              add [bx+si],al
000055FB  0000              add [bx+si],al
000055FD  0000              add [bx+si],al
000055FF  00                db 0x00
